TN:Musicial_test
SF:/usr/include/c++/9/typeinfo
FN:120,_ZNKSt9type_infoeqERKS_
FNDA:2,_ZNKSt9type_infoeqERKS_
DA:120,2
DA:122,2
DA:123,2
DA:124,2
end_of_record
SF:/usr/include/c++/9/bits/stl_algobase.h
FN:198,_ZSt3minImERKT_S2_S2_
FNDA:0,_ZSt3minImERKT_S2_S2_
FN:222,_ZSt3maxImERKT_S2_S2_
FNDA:0,_ZSt3maxImERKT_S2_S2_
FN:280,_ZSt12__niter_baseIPSt10shared_ptrIN7testing8internal15ExpectationBaseEEET_S6_
FNDA:18,_ZSt12__niter_baseIPSt10shared_ptrIN7testing8internal15ExpectationBaseEEET_S6_
FN:280,_ZSt12__niter_baseIPN9sharedLib8PlatformEET_S3_
FNDA:0,_ZSt12__niter_baseIPN9sharedLib8PlatformEET_S3_
FN:280,_ZSt12__niter_baseIPN9sharedLib4SongEET_S3_
FNDA:0,_ZSt12__niter_baseIPN9sharedLib4SongEET_S3_
FN:280,_ZSt12__niter_baseIPN9sharedLib8PlaylistEET_S3_
FNDA:0,_ZSt12__niter_baseIPN9sharedLib8PlaylistEET_S3_
FN:295,_ZSt12__niter_wrapIPN9sharedLib8PlatformEET_RKS3_S3_
FNDA:0,_ZSt12__niter_wrapIPN9sharedLib8PlatformEET_RKS3_S3_
FN:375,_ZNSt11__copy_moveILb1ELb1ESt26random_access_iterator_tagE8__copy_mIN9sharedLib8PlatformEEEPT_PKS5_S8_S6_
FNDA:0,_ZNSt11__copy_moveILb1ELb1ESt26random_access_iterator_tagE8__copy_mIN9sharedLib8PlatformEEEPT_PKS5_S8_S6_
FN:393,_ZSt13__copy_move_aILb1EPN9sharedLib8PlatformES2_ET1_T0_S4_S3_
FNDA:0,_ZSt13__copy_move_aILb1EPN9sharedLib8PlatformES2_ET1_T0_S4_S3_
FN:438,_ZSt14__copy_move_a2ILb1EPN9sharedLib8PlatformES2_ET1_T0_S4_S3_
FNDA:0,_ZSt14__copy_move_a2ILb1EPN9sharedLib8PlatformES2_ET1_T0_S4_S3_
FN:465,_ZSt4copyISt13move_iteratorIPN9sharedLib8PlatformEES3_ET0_T_S6_S5_
FNDA:0,_ZSt4copyISt13move_iteratorIPN9sharedLib8PlatformEES3_ET0_T_S6_S5_
DA:198,0
DA:203,0
DA:204,0
DA:205,0
DA:222,0
DA:227,0
DA:228,0
DA:229,0
DA:280,18
DA:282,18
DA:280,0
DA:282,0
DA:280,0
DA:282,0
DA:280,0
DA:282,0
DA:295,0
DA:296,0
DA:375,0
DA:384,0
DA:385,0
DA:386,0
DA:387,0
DA:393,0
DA:398,0
DA:404,0
DA:438,0
DA:440,0
DA:443,0
DA:465,0
DA:474,0
end_of_record
SF:/usr/include/c++/9/iostream
end_of_record
SF:/usr/include/c++/9/bits/stl_iterator_base_types.h
FN:205,_ZSt19__iterator_categoryIPcENSt15iterator_traitsIT_E17iterator_categoryERKS2_
FNDA:0,_ZSt19__iterator_categoryIPcENSt15iterator_traitsIT_E17iterator_categoryERKS2_
FN:205,_ZSt19__iterator_categoryIPKcENSt15iterator_traitsIT_E17iterator_categoryERKS3_
FNDA:0,_ZSt19__iterator_categoryIPKcENSt15iterator_traitsIT_E17iterator_categoryERKS3_
FN:205,_ZSt19__iterator_categoryIN9__gnu_cxx17__normal_iteratorIPN9sharedLib4SongESt6vectorIS3_SaIS3_EEEEENSt15iterator_traitsIT_E17iterator_categoryERKSA_
FNDA:3,_ZSt19__iterator_categoryIN9__gnu_cxx17__normal_iteratorIPN9sharedLib4SongESt6vectorIS3_SaIS3_EEEEENSt15iterator_traitsIT_E17iterator_categoryERKSA_
FN:205,_ZSt19__iterator_categoryIN9__gnu_cxx17__normal_iteratorIPN9sharedLib8PlaylistESt6vectorIS3_SaIS3_EEEEENSt15iterator_traitsIT_E17iterator_categoryERKSA_
FNDA:3,_ZSt19__iterator_categoryIN9__gnu_cxx17__normal_iteratorIPN9sharedLib8PlaylistESt6vectorIS3_SaIS3_EEEEENSt15iterator_traitsIT_E17iterator_categoryERKSA_
DA:205,0
DA:206,0
DA:205,0
DA:206,0
DA:205,3
DA:206,3
DA:205,3
DA:206,3
end_of_record
SF:/usr/include/c++/9/tuple
FN:76,_ZNSt10_Head_baseILm1ESt14default_deleteIN7testing8internal18ActionResultHolderIvEEELb1EEC2Ev
FNDA:4,_ZNSt10_Head_baseILm1ESt14default_deleteIN7testing8internal18ActionResultHolderIvEEELb1EEC2Ev
FN:113,_ZNSt10_Head_baseILm1ESt14default_deleteINSt7__cxx1118basic_stringstreamIcSt11char_traitsIcESaIcEEEELb1EE7_M_headERS8_
FNDA:66,_ZNSt10_Head_baseILm1ESt14default_deleteINSt7__cxx1118basic_stringstreamIcSt11char_traitsIcESaIcEEEELb1EE7_M_headERS8_
FN:113,_ZNSt10_Head_baseILm1ESt14default_deleteINSt7__cxx1112basic_stringIcSt11char_traitsIcESaIcEEEELb1EE7_M_headERS8_
FNDA:0,_ZNSt10_Head_baseILm1ESt14default_deleteINSt7__cxx1112basic_stringIcSt11char_traitsIcESaIcEEEELb1EE7_M_headERS8_
FN:113,_ZNSt10_Head_baseILm1ESt14default_deleteIN7testing8internal18ActionResultHolderIvEEELb1EE7_M_headERS6_
FNDA:4,_ZNSt10_Head_baseILm1ESt14default_deleteIN7testing8internal18ActionResultHolderIvEEELb1EE7_M_headERS6_
FN:122,_ZNSt10_Head_baseILm0EPN7testing8internal18ActionResultHolderIvEELb0EEC2Ev
FNDA:4,_ZNSt10_Head_baseILm0EPN7testing8internal18ActionResultHolderIvEELb0EEC2Ev
FN:132,_ZNSt10_Head_baseILm1EPKN7testing8internal15AnythingMatcherELb0EEC2IS4_EEOT_
FNDA:0,_ZNSt10_Head_baseILm1EPKN7testing8internal15AnythingMatcherELb0EEC2IS4_EEOT_
FN:132,_ZNSt10_Head_baseILm0EPKN7testing8internal11MatcherBaseIRKSt5tupleIJEEEELb0EEC2IS9_EEOT_
FNDA:0,_ZNSt10_Head_baseILm0EPKN7testing8internal11MatcherBaseIRKSt5tupleIJEEEELb0EEC2IS9_EEOT_
FN:160,_ZNSt10_Head_baseILm0EPKN7testing8internal11MatcherBaseIRKSt5tupleIJEEEELb0EE7_M_headERSA_
FNDA:0,_ZNSt10_Head_baseILm0EPKN7testing8internal11MatcherBaseIRKSt5tupleIJEEEELb0EE7_M_headERSA_
FN:160,_ZNSt10_Head_baseILm0EPNSt7__cxx1118basic_stringstreamIcSt11char_traitsIcESaIcEEELb0EE7_M_headERS7_
FNDA:132,_ZNSt10_Head_baseILm0EPNSt7__cxx1118basic_stringstreamIcSt11char_traitsIcESaIcEEELb0EE7_M_headERS7_
FN:160,_ZNSt10_Head_baseILm0EPNSt7__cxx1112basic_stringIcSt11char_traitsIcESaIcEEELb0EE7_M_headERS7_
FNDA:12,_ZNSt10_Head_baseILm0EPNSt7__cxx1112basic_stringIcSt11char_traitsIcESaIcEEELb0EE7_M_headERS7_
FN:160,_ZNSt10_Head_baseILm0EPN7testing8internal18ActionResultHolderIvEELb0EE7_M_headERS5_
FNDA:8,_ZNSt10_Head_baseILm0EPN7testing8internal18ActionResultHolderIvEELb0EE7_M_headERS5_
FN:163,_ZNSt10_Head_baseILm0EPNSt7__cxx1112basic_stringIcSt11char_traitsIcESaIcEEELb0EE7_M_headERKS7_
FNDA:0,_ZNSt10_Head_baseILm0EPNSt7__cxx1112basic_stringIcSt11char_traitsIcESaIcEEELb0EE7_M_headERKS7_
FN:163,_ZNSt10_Head_baseILm0EPN7testing8internal11ThreadLocalIPNS0_8SequenceEE18ValueHolderFactoryELb0EE7_M_headERKS8_
FNDA:1,_ZNSt10_Head_baseILm0EPN7testing8internal11ThreadLocalIPNS0_8SequenceEE18ValueHolderFactoryELb0EE7_M_headERKS8_
FN:163,_ZNSt10_Head_baseILm0EPN7testing8internal18ActionResultHolderIvEELb0EE7_M_headERKS5_
FNDA:4,_ZNSt10_Head_baseILm0EPN7testing8internal18ActionResultHolderIvEELb0EE7_M_headERKS5_
FN:195,_ZNSt11_Tuple_implILm0EJPN7testing8internal18ActionResultHolderIvEESt14default_deleteIS3_EEE7_M_headERS7_
FNDA:8,_ZNSt11_Tuple_implILm0EJPN7testing8internal18ActionResultHolderIvEESt14default_deleteIS3_EEE7_M_headERS7_
FN:195,_ZNSt11_Tuple_implILm0EJPNSt7__cxx1112basic_stringIcSt11char_traitsIcESaIcEEESt14default_deleteIS5_EEE7_M_headERS9_
FNDA:12,_ZNSt11_Tuple_implILm0EJPNSt7__cxx1112basic_stringIcSt11char_traitsIcESaIcEEESt14default_deleteIS5_EEE7_M_headERS9_
FN:195,_ZNSt11_Tuple_implILm0EJPNSt7__cxx1118basic_stringstreamIcSt11char_traitsIcESaIcEEESt14default_deleteIS5_EEE7_M_headERS9_
FNDA:132,_ZNSt11_Tuple_implILm0EJPNSt7__cxx1118basic_stringstreamIcSt11char_traitsIcESaIcEEESt14default_deleteIS5_EEE7_M_headERS9_
FN:195,_ZNSt11_Tuple_implILm0EJPKN7testing8internal11MatcherBaseIRKSt5tupleIJEEEEPKNS1_15AnythingMatcherEEE7_M_headERSD_
FNDA:0,_ZNSt11_Tuple_implILm0EJPKN7testing8internal11MatcherBaseIRKSt5tupleIJEEEEPKNS1_15AnythingMatcherEEE7_M_headERSD_
FN:198,_ZNSt11_Tuple_implILm0EJPN7testing8internal11ThreadLocalIPNS0_8SequenceEE18ValueHolderFactoryESt14default_deleteIS6_EEE7_M_headERKSA_
FNDA:1,_ZNSt11_Tuple_implILm0EJPN7testing8internal11ThreadLocalIPNS0_8SequenceEE18ValueHolderFactoryESt14default_deleteIS6_EEE7_M_headERKSA_
FN:198,_ZNSt11_Tuple_implILm0EJPN7testing8internal18ActionResultHolderIvEESt14default_deleteIS3_EEE7_M_headERKS7_
FNDA:4,_ZNSt11_Tuple_implILm0EJPN7testing8internal18ActionResultHolderIvEESt14default_deleteIS3_EEE7_M_headERKS7_
FN:198,_ZNSt11_Tuple_implILm0EJPNSt7__cxx1112basic_stringIcSt11char_traitsIcESaIcEEESt14default_deleteIS5_EEE7_M_headERKS9_
FNDA:0,_ZNSt11_Tuple_implILm0EJPNSt7__cxx1112basic_stringIcSt11char_traitsIcESaIcEEESt14default_deleteIS5_EEE7_M_headERKS9_
FN:206,_ZNSt11_Tuple_implILm0EJPN7testing8internal18ActionResultHolderIvEESt14default_deleteIS3_EEEC2Ev
FNDA:4,_ZNSt11_Tuple_implILm0EJPN7testing8internal18ActionResultHolderIvEESt14default_deleteIS3_EEEC2Ev
FN:216,_ZNSt11_Tuple_implILm0EJPKN7testing8internal11MatcherBaseIRKSt5tupleIJEEEEPKNS1_15AnythingMatcherEEEC2IS9_JSC_EvEEOT_DpOT0_
FNDA:0,_ZNSt11_Tuple_implILm0EJPKN7testing8internal11MatcherBaseIRKSt5tupleIJEEEEPKNS1_15AnythingMatcherEEEC2IS9_JSC_EvEEOT_DpOT0_
FN:334,_ZNSt11_Tuple_implILm1EJSt14default_deleteIN7testing8internal18ActionResultHolderIvEEEEE7_M_headERS6_
FNDA:4,_ZNSt11_Tuple_implILm1EJSt14default_deleteIN7testing8internal18ActionResultHolderIvEEEEE7_M_headERS6_
FN:334,_ZNSt11_Tuple_implILm1EJSt14default_deleteINSt7__cxx1118basic_stringstreamIcSt11char_traitsIcESaIcEEEEEE7_M_headERS8_
FNDA:66,_ZNSt11_Tuple_implILm1EJSt14default_deleteINSt7__cxx1118basic_stringstreamIcSt11char_traitsIcESaIcEEEEEE7_M_headERS8_
FN:334,_ZNSt11_Tuple_implILm1EJSt14default_deleteINSt7__cxx1112basic_stringIcSt11char_traitsIcESaIcEEEEEE7_M_headERS8_
FNDA:0,_ZNSt11_Tuple_implILm1EJSt14default_deleteINSt7__cxx1112basic_stringIcSt11char_traitsIcESaIcEEEEEE7_M_headERS8_
FN:339,_ZNSt11_Tuple_implILm1EJSt14default_deleteIN7testing8internal18ActionResultHolderIvEEEEEC2Ev
FNDA:4,_ZNSt11_Tuple_implILm1EJSt14default_deleteIN7testing8internal18ActionResultHolderIvEEEEEC2Ev
FN:348,_ZNSt11_Tuple_implILm1EJPKN7testing8internal15AnythingMatcherEEEC2IS4_EEOT_
FNDA:0,_ZNSt11_Tuple_implILm1EJPKN7testing8internal15AnythingMatcherEEEC2IS4_EEOT_
FN:918,_ZNSt5tupleIJPN7testing8internal18ActionResultHolderIvEESt14default_deleteIS3_EEEC2IS4_S6_Lb1EEEv
FNDA:4,_ZNSt5tupleIJPN7testing8internal18ActionResultHolderIvEESt14default_deleteIS3_EEEC2IS4_S6_Lb1EEEv
FN:968,_ZNSt5tupleIJPKN7testing8internal11MatcherBaseIRKS_IJEEEEPKNS1_15AnythingMatcherEEEC2IS8_SB_Lb1EEEOT_OT0_
FNDA:0,_ZNSt5tupleIJPKN7testing8internal11MatcherBaseIRKS_IJEEEEPKNS1_15AnythingMatcherEEEC2IS8_SB_Lb1EEEOT_OT0_
FN:1309,_ZSt12__get_helperILm0EPNSt7__cxx1112basic_stringIcSt11char_traitsIcESaIcEEEJSt14default_deleteIS5_EEERT0_RSt11_Tuple_implIXT_EJS9_DpT1_EE
FNDA:12,_ZSt12__get_helperILm0EPNSt7__cxx1112basic_stringIcSt11char_traitsIcESaIcEEEJSt14default_deleteIS5_EEERT0_RSt11_Tuple_implIXT_EJS9_DpT1_EE
FN:1309,_ZSt12__get_helperILm0EPKN7testing8internal11MatcherBaseIRKSt5tupleIJEEEEJPKNS1_15AnythingMatcherEEERT0_RSt11_Tuple_implIXT_EJSD_DpT1_EE
FNDA:0,_ZSt12__get_helperILm0EPKN7testing8internal11MatcherBaseIRKSt5tupleIJEEEEJPKNS1_15AnythingMatcherEEERT0_RSt11_Tuple_implIXT_EJSD_DpT1_EE
FN:1309,_ZSt12__get_helperILm1ESt14default_deleteINSt7__cxx1118basic_stringstreamIcSt11char_traitsIcESaIcEEEEJEERT0_RSt11_Tuple_implIXT_EJS8_DpT1_EE
FNDA:66,_ZSt12__get_helperILm1ESt14default_deleteINSt7__cxx1118basic_stringstreamIcSt11char_traitsIcESaIcEEEEJEERT0_RSt11_Tuple_implIXT_EJS8_DpT1_EE
FN:1309,_ZSt12__get_helperILm1ESt14default_deleteIN7testing8internal18ActionResultHolderIvEEEJEERT0_RSt11_Tuple_implIXT_EJS6_DpT1_EE
FNDA:4,_ZSt12__get_helperILm1ESt14default_deleteIN7testing8internal18ActionResultHolderIvEEEJEERT0_RSt11_Tuple_implIXT_EJS6_DpT1_EE
FN:1309,_ZSt12__get_helperILm0EPN7testing8internal18ActionResultHolderIvEEJSt14default_deleteIS3_EEERT0_RSt11_Tuple_implIXT_EJS7_DpT1_EE
FNDA:8,_ZSt12__get_helperILm0EPN7testing8internal18ActionResultHolderIvEEJSt14default_deleteIS3_EEERT0_RSt11_Tuple_implIXT_EJS7_DpT1_EE
FN:1309,_ZSt12__get_helperILm1ESt14default_deleteINSt7__cxx1112basic_stringIcSt11char_traitsIcESaIcEEEEJEERT0_RSt11_Tuple_implIXT_EJS8_DpT1_EE
FNDA:0,_ZSt12__get_helperILm1ESt14default_deleteINSt7__cxx1112basic_stringIcSt11char_traitsIcESaIcEEEEJEERT0_RSt11_Tuple_implIXT_EJS8_DpT1_EE
FN:1309,_ZSt12__get_helperILm0EPNSt7__cxx1118basic_stringstreamIcSt11char_traitsIcESaIcEEEJSt14default_deleteIS5_EEERT0_RSt11_Tuple_implIXT_EJS9_DpT1_EE
FNDA:132,_ZSt12__get_helperILm0EPNSt7__cxx1118basic_stringstreamIcSt11char_traitsIcESaIcEEEJSt14default_deleteIS5_EEERT0_RSt11_Tuple_implIXT_EJS9_DpT1_EE
FN:1314,_ZSt12__get_helperILm0EPNSt7__cxx1112basic_stringIcSt11char_traitsIcESaIcEEEJSt14default_deleteIS5_EEERKT0_RKSt11_Tuple_implIXT_EJS9_DpT1_EE
FNDA:0,_ZSt12__get_helperILm0EPNSt7__cxx1112basic_stringIcSt11char_traitsIcESaIcEEEJSt14default_deleteIS5_EEERKT0_RKSt11_Tuple_implIXT_EJS9_DpT1_EE
FN:1314,_ZSt12__get_helperILm0EPN7testing8internal11ThreadLocalIPNS0_8SequenceEE18ValueHolderFactoryEJSt14default_deleteIS6_EEERKT0_RKSt11_Tuple_implIXT_EJSA_DpT1_EE
FNDA:1,_ZSt12__get_helperILm0EPN7testing8internal11ThreadLocalIPNS0_8SequenceEE18ValueHolderFactoryEJSt14default_deleteIS6_EEERKT0_RKSt11_Tuple_implIXT_EJSA_DpT1_EE
FN:1314,_ZSt12__get_helperILm0EPN7testing8internal18ActionResultHolderIvEEJSt14default_deleteIS3_EEERKT0_RKSt11_Tuple_implIXT_EJS7_DpT1_EE
FNDA:4,_ZSt12__get_helperILm0EPN7testing8internal18ActionResultHolderIvEEJSt14default_deleteIS3_EEERKT0_RKSt11_Tuple_implIXT_EJS7_DpT1_EE
FN:1320,_ZSt3getILm1EJPN7testing8internal18ActionResultHolderIvEESt14default_deleteIS3_EEERNSt13tuple_elementIXT_ESt5tupleIJDpT0_EEE4typeERSB_
FNDA:4,_ZSt3getILm1EJPN7testing8internal18ActionResultHolderIvEESt14default_deleteIS3_EEERNSt13tuple_elementIXT_ESt5tupleIJDpT0_EEE4typeERSB_
FN:1320,_ZSt3getILm0EJPN7testing8internal18ActionResultHolderIvEESt14default_deleteIS3_EEERNSt13tuple_elementIXT_ESt5tupleIJDpT0_EEE4typeERSB_
FNDA:8,_ZSt3getILm0EJPN7testing8internal18ActionResultHolderIvEESt14default_deleteIS3_EEERNSt13tuple_elementIXT_ESt5tupleIJDpT0_EEE4typeERSB_
FN:1320,_ZSt3getILm0EJPKN7testing8internal11MatcherBaseIRKSt5tupleIJEEEEPKNS1_15AnythingMatcherEEERNSt13tuple_elementIXT_ES3_IJDpT0_EEE4typeERSG_
FNDA:0,_ZSt3getILm0EJPKN7testing8internal11MatcherBaseIRKSt5tupleIJEEEEPKNS1_15AnythingMatcherEEERNSt13tuple_elementIXT_ES3_IJDpT0_EEE4typeERSG_
FN:1320,_ZSt3getILm1EJPNSt7__cxx1112basic_stringIcSt11char_traitsIcESaIcEEESt14default_deleteIS5_EEERNSt13tuple_elementIXT_ESt5tupleIJDpT0_EEE4typeERSD_
FNDA:0,_ZSt3getILm1EJPNSt7__cxx1112basic_stringIcSt11char_traitsIcESaIcEEESt14default_deleteIS5_EEERNSt13tuple_elementIXT_ESt5tupleIJDpT0_EEE4typeERSD_
FN:1320,_ZSt3getILm0EJPNSt7__cxx1118basic_stringstreamIcSt11char_traitsIcESaIcEEESt14default_deleteIS5_EEERNSt13tuple_elementIXT_ESt5tupleIJDpT0_EEE4typeERSD_
FNDA:132,_ZSt3getILm0EJPNSt7__cxx1118basic_stringstreamIcSt11char_traitsIcESaIcEEESt14default_deleteIS5_EEERNSt13tuple_elementIXT_ESt5tupleIJDpT0_EEE4typeERSD_
FN:1320,_ZSt3getILm1EJPNSt7__cxx1118basic_stringstreamIcSt11char_traitsIcESaIcEEESt14default_deleteIS5_EEERNSt13tuple_elementIXT_ESt5tupleIJDpT0_EEE4typeERSD_
FNDA:66,_ZSt3getILm1EJPNSt7__cxx1118basic_stringstreamIcSt11char_traitsIcESaIcEEESt14default_deleteIS5_EEERNSt13tuple_elementIXT_ESt5tupleIJDpT0_EEE4typeERSD_
FN:1320,_ZSt3getILm0EJPNSt7__cxx1112basic_stringIcSt11char_traitsIcESaIcEEESt14default_deleteIS5_EEERNSt13tuple_elementIXT_ESt5tupleIJDpT0_EEE4typeERSD_
FNDA:12,_ZSt3getILm0EJPNSt7__cxx1112basic_stringIcSt11char_traitsIcESaIcEEESt14default_deleteIS5_EEERNSt13tuple_elementIXT_ESt5tupleIJDpT0_EEE4typeERSD_
FN:1326,_ZSt3getILm0EJPN7testing8internal18ActionResultHolderIvEESt14default_deleteIS3_EEERKNSt13tuple_elementIXT_ESt5tupleIJDpT0_EEE4typeERKSB_
FNDA:4,_ZSt3getILm0EJPN7testing8internal18ActionResultHolderIvEESt14default_deleteIS3_EEERKNSt13tuple_elementIXT_ESt5tupleIJDpT0_EEE4typeERKSB_
FN:1326,_ZSt3getILm0EJPN7testing8internal11ThreadLocalIPNS0_8SequenceEE18ValueHolderFactoryESt14default_deleteIS6_EEERKNSt13tuple_elementIXT_ESt5tupleIJDpT0_EEE4typeERKSE_
FNDA:1,_ZSt3getILm0EJPN7testing8internal11ThreadLocalIPNS0_8SequenceEE18ValueHolderFactoryESt14default_deleteIS6_EEERKNSt13tuple_elementIXT_ESt5tupleIJDpT0_EEE4typeERKSE_
FN:1326,_ZSt3getILm0EJPNSt7__cxx1112basic_stringIcSt11char_traitsIcESaIcEEESt14default_deleteIS5_EEERKNSt13tuple_elementIXT_ESt5tupleIJDpT0_EEE4typeERKSD_
FNDA:0,_ZSt3getILm0EJPNSt7__cxx1112basic_stringIcSt11char_traitsIcESaIcEEESt14default_deleteIS5_EEERKNSt13tuple_elementIXT_ESt5tupleIJDpT0_EEE4typeERKSD_
FN:1332,_ZSt3getILm0EJPKN7testing8internal11MatcherBaseIRKSt5tupleIJEEEEPKNS1_15AnythingMatcherEEEONSt13tuple_elementIXT_ES3_IJDpT0_EEE4typeEOSG_
FNDA:0,_ZSt3getILm0EJPKN7testing8internal11MatcherBaseIRKSt5tupleIJEEEEPKNS1_15AnythingMatcherEEEONSt13tuple_elementIXT_ES3_IJDpT0_EEE4typeEOSG_
FN:1470,_ZSt10make_tupleIJPKN7testing8internal11MatcherBaseIRKSt5tupleIJEEEEPKNS1_15AnythingMatcherEEES3_IJDpNSt17__decay_and_stripIT_E6__typeEEEDpOSE_
FNDA:0,_ZSt10make_tupleIJPKN7testing8internal11MatcherBaseIRKSt5tupleIJEEEEPKNS1_15AnythingMatcherEEES3_IJDpNSt17__decay_and_stripIT_E6__typeEEEDpOSE_
FN:1470,_ZSt10make_tupleIJEESt5tupleIJDpNSt17__decay_and_stripIT_E6__typeEEEDpOS2_
FNDA:3,_ZSt10make_tupleIJEESt5tupleIJDpNSt17__decay_and_stripIT_E6__typeEEEDpOS2_
DA:76,4
DA:77,4
DA:113,4
DA:113,0
DA:113,66
DA:122,4
DA:123,4
DA:132,0
DA:133,0
DA:132,0
DA:133,0
DA:160,0
DA:160,8
DA:160,12
DA:160,132
DA:163,1
DA:163,4
DA:163,0
DA:195,0
DA:195,8
DA:195,12
DA:195,132
DA:198,1
DA:198,4
DA:198,0
DA:206,4
DA:207,4
DA:216,0
DA:218,0
DA:334,4
DA:334,0
DA:334,66
DA:339,4
DA:340,4
DA:348,0
DA:349,0
DA:918,4
DA:919,4
DA:968,0
DA:969,0
DA:1309,0
DA:1310,0
DA:1309,4
DA:1310,4
DA:1309,8
DA:1310,8
DA:1309,0
DA:1310,0
DA:1309,66
DA:1310,66
DA:1309,12
DA:1310,12
DA:1309,132
DA:1310,132
DA:1314,1
DA:1315,1
DA:1314,4
DA:1315,4
DA:1314,0
DA:1315,0
DA:1320,0
DA:1321,0
DA:1320,4
DA:1321,4
DA:1320,8
DA:1321,8
DA:1320,0
DA:1321,0
DA:1320,66
DA:1321,66
DA:1320,12
DA:1321,12
DA:1320,132
DA:1321,132
DA:1326,1
DA:1327,1
DA:1326,4
DA:1327,4
DA:1326,0
DA:1327,0
DA:1332,0
DA:1335,0
DA:1470,0
DA:1474,0
DA:1470,3
DA:1474,3
end_of_record
SF:/usr/include/c++/9/bits/allocator.h
FN:137,_ZNSaIPKvEC2Ev
FNDA:11,_ZNSaIPKvEC2Ev
FN:137,_ZNSaIN9sharedLib8PlatformEEC2Ev
FNDA:0,_ZNSaIN9sharedLib8PlatformEEC2Ev
FN:137,_ZNSaIN9sharedLib4SongEEC2Ev
FNDA:0,_ZNSaIN9sharedLib4SongEEC2Ev
FN:137,_ZNSaIN9sharedLib8PlaylistEEC2Ev
FNDA:0,_ZNSaIN9sharedLib8PlaylistEEC2Ev
FN:137,_ZNSaISt13_Rb_tree_nodeIN7testing11ExpectationEEEC2Ev
FNDA:3,_ZNSaISt13_Rb_tree_nodeIN7testing11ExpectationEEEC2Ev
FN:152,_ZNSaIPKvED2Ev
FNDA:11,_ZNSaIPKvED2Ev
FN:152,_ZNSaIN9sharedLib7MessageEED2Ev
FNDA:0,_ZNSaIN9sharedLib7MessageEED2Ev
FN:152,_ZNSaIN9sharedLib8PlatformEED2Ev
FNDA:0,_ZNSaIN9sharedLib8PlatformEED2Ev
FN:152,_ZNSaIN9sharedLib4SongEED2Ev
FNDA:0,_ZNSaIN9sharedLib4SongEED2Ev
FN:152,_ZNSaIN9sharedLib8PlaylistEED2Ev
FNDA:0,_ZNSaIN9sharedLib8PlaylistEED2Ev
FN:152,_ZNSaISt13_Rb_tree_nodeIN7testing11ExpectationEEED2Ev
FNDA:3,_ZNSaISt13_Rb_tree_nodeIN7testing11ExpectationEEED2Ev
DA:137,11
DA:137,0
DA:137,0
DA:137,0
DA:137,3
DA:152,11
DA:152,0
DA:152,0
DA:152,0
DA:152,0
DA:152,3
end_of_record
SF:/usr/include/c++/9/bits/shared_ptr.h
FN:129,_ZNSt10shared_ptrIN7testing8internal15ExpectationBaseEEC2ERKS3_
FNDA:3,_ZNSt10shared_ptrIN7testing8internal15ExpectationBaseEEC2ERKS3_
FN:139,_ZNSt10shared_ptrIN7testing8internal15ExpectationBaseEEC2INS1_16TypedExpectationIFvvEEEvEEPT_
FNDA:3,_ZNSt10shared_ptrIN7testing8internal15ExpectationBaseEEC2INS1_16TypedExpectationIFvvEEEvEEPT_
FN:254,_ZNSt10shared_ptrIN7testing8internal15ExpectationBaseEEC2EOS3_
FNDA:0,_ZNSt10shared_ptrIN7testing8internal15ExpectationBaseEEC2EOS3_
DA:129,3
DA:139,3
DA:254,0
DA:255,0
end_of_record
SF:/home/aint/park/tempMusicial/Musicial/qt/lib/shared_lib.h
FN:23,_ZN9sharedLib3URLC2ENSt7__cxx1112basic_stringIcSt11char_traitsIcESaIcEEE
FNDA:14,_ZN9sharedLib3URLC2ENSt7__cxx1112basic_stringIcSt11char_traitsIcESaIcEEE
FN:30,_ZN9sharedLib8PlaylistC2ENS_3URLENS_8PlatformE
FNDA:7,_ZN9sharedLib8PlaylistC2ENS_3URLENS_8PlatformE
FN:38,_ZN9sharedLib4SongC2ENS_3URLENS_8PlatformE
FNDA:7,_ZN9sharedLib4SongC2ENS_3URLENS_8PlatformE
DA:23,14
DA:30,7
DA:38,7
end_of_record
SF:/usr/local/include/gmock/internal/gmock-internal-utils.h
FN:226,_ZN7testing8internal6AssertEbPKciRKNSt7__cxx1112basic_stringIcSt11char_traitsIcESaIcEEE
FNDA:8,_ZN7testing8internal6AssertEbPKciRKNSt7__cxx1112basic_stringIcSt11char_traitsIcESaIcEEE
FN:416,_ZN7testing8internal9ApplyImplIRKSt8functionIFvvEESt5tupleIJEEJEEEDTclcl7forwardIT_Efp_Espcl3getIXT1_EEcl7forwardIT0_Efp0_EEEEOS9_OSA_NS0_13IndexSequenceIJXspT1_EEEE
FNDA:0,_ZN7testing8internal9ApplyImplIRKSt8functionIFvvEESt5tupleIJEEJEEEDTclcl7forwardIT_Efp_Espcl3getIXT1_EEcl7forwardIT0_Efp0_EEEEOS9_OSA_NS0_13IndexSequenceIJXspT1_EEEE
FN:423,_ZN7testing8internal5ApplyIRKSt8functionIFvvEESt5tupleIJEEEEDTcl9ApplyImplcl7forwardIT_Efp_Ecl7forwardIT0_Efp0_EcvNS0_21MakeIndexSequenceImplIXsrSt10tuple_sizeINSt16remove_referenceISA_E4typeEE5valueEE4typeE_EEEOS9_OSA_
FNDA:0,_ZN7testing8internal5ApplyIRKSt8functionIFvvEESt5tupleIJEEEEDTcl9ApplyImplcl7forwardIT_Efp_Ecl7forwardIT0_Efp0_EcvNS0_21MakeIndexSequenceImplIXsrSt10tuple_sizeINSt16remove_referenceISA_E4typeEE5valueEE4typeE_EEEOS9_OSA_
DA:226,8
DA:228,8
DA:229,0
DA:230,0
DA:232,8
DA:416,0
DA:418,0
DA:423,0
DA:427,0
DA:429,0
end_of_record
SF:/usr/include/x86_64-linux-gnu/c++/9/bits/gthr-default.h
FN:248,_ZL18__gthread_active_pv
FNDA:30,_ZL18__gthread_active_pv
DA:248,30
DA:252,30
end_of_record
SF:/usr/include/c++/9/bits/move.h
FN:47,_ZSt11__addressofIKZN36mMessageGroup_MockmMessageGroup_Test8TestBodyEvEUlRKN9__gnu_cxx17__normal_iteratorIPN9sharedLib7MessageESt6vectorIS4_SaIS4_EEEESB_E_EPT_RSE_
FNDA:3,_ZSt11__addressofIKZN36mMessageGroup_MockmMessageGroup_Test8TestBodyEvEUlRKN9__gnu_cxx17__normal_iteratorIPN9sharedLib7MessageESt6vectorIS4_SaIS4_EEEESB_E_EPT_RSE_
FN:47,_ZSt11__addressofIN9sharedLib8PlaylistEEPT_RS2_
FNDA:0,_ZSt11__addressofIN9sharedLib8PlaylistEEPT_RS2_
FN:47,_ZSt11__addressofIN9sharedLib4SongEEPT_RS2_
FNDA:0,_ZSt11__addressofIN9sharedLib4SongEEPT_RS2_
FN:47,_ZSt11__addressofISt10shared_ptrIN7testing8internal15ExpectationBaseEEEPT_RS5_
FNDA:3,_ZSt11__addressofISt10shared_ptrIN7testing8internal15ExpectationBaseEEEPT_RS5_
FN:47,_ZSt11__addressofIN9sharedLib7MessageEEPT_RS2_
FNDA:0,_ZSt11__addressofIN9sharedLib7MessageEEPT_RS2_
FN:74,_ZSt7forwardIRKSt8functionIFvvEEEOT_RNSt16remove_referenceIS5_E4typeE
FNDA:0,_ZSt7forwardIRKSt8functionIFvvEEEOT_RNSt16remove_referenceIS5_E4typeE
FN:74,_ZSt7forwardIN9sharedLib3URLEEOT_RNSt16remove_referenceIS2_E4typeE
FNDA:56,_ZSt7forwardIN9sharedLib3URLEEOT_RNSt16remove_referenceIS2_E4typeE
FN:74,_ZSt7forwardIRN9sharedLib8PlatformEEOT_RNSt16remove_referenceIS3_E4typeE
FNDA:8,_ZSt7forwardIRN9sharedLib8PlatformEEOT_RNSt16remove_referenceIS3_E4typeE
FN:74,_ZSt7forwardIN9sharedLib8PlatformEEOT_RNSt16remove_referenceIS2_E4typeE
FNDA:52,_ZSt7forwardIN9sharedLib8PlatformEEOT_RNSt16remove_referenceIS2_E4typeE
FN:74,_ZSt7forwardIRKN9__gnu_cxx17__normal_iteratorIPN9sharedLib7MessageESt6vectorIS3_SaIS3_EEEEEOT_RNSt16remove_referenceISB_E4typeE
FNDA:0,_ZSt7forwardIRKN9__gnu_cxx17__normal_iteratorIPN9sharedLib7MessageESt6vectorIS3_SaIS3_EEEEEOT_RNSt16remove_referenceISB_E4typeE
FN:74,_ZSt7forwardIRKSt10shared_ptrIN7testing8internal15ExpectationBaseEEEOT_RNSt16remove_referenceIS7_E4typeE
FNDA:9,_ZSt7forwardIRKSt10shared_ptrIN7testing8internal15ExpectationBaseEEEOT_RNSt16remove_referenceIS7_E4typeE
FN:74,_ZSt7forwardIRKN7testing8internal15AnythingMatcherEEOT_RNSt16remove_referenceIS5_E4typeE
FNDA:9,_ZSt7forwardIRKN7testing8internal15AnythingMatcherEEOT_RNSt16remove_referenceIS5_E4typeE
FN:74,_ZSt7forwardIN9sharedLib8PlaylistEEOT_RNSt16remove_referenceIS2_E4typeE
FNDA:6,_ZSt7forwardIN9sharedLib8PlaylistEEOT_RNSt16remove_referenceIS2_E4typeE
FN:74,_ZSt7forwardIN9sharedLib4SongEEOT_RNSt16remove_referenceIS2_E4typeE
FNDA:6,_ZSt7forwardIN9sharedLib4SongEEOT_RNSt16remove_referenceIS2_E4typeE
FN:74,_ZSt7forwardISt10shared_ptrIN7testing8internal15ExpectationBaseEEEOT_RNSt16remove_referenceIS5_E4typeE
FNDA:0,_ZSt7forwardISt10shared_ptrIN7testing8internal15ExpectationBaseEEEOT_RNSt16remove_referenceIS5_E4typeE
FN:74,_ZSt7forwardIPKN7testing8internal11MatcherBaseIRKSt5tupleIJEEEEEOT_RNSt16remove_referenceISA_E4typeE
FNDA:0,_ZSt7forwardIPKN7testing8internal11MatcherBaseIRKSt5tupleIJEEEEEOT_RNSt16remove_referenceISA_E4typeE
FN:74,_ZSt7forwardIPKN7testing8internal15AnythingMatcherEEOT_RNSt16remove_referenceIS5_E4typeE
FNDA:0,_ZSt7forwardIPKN7testing8internal15AnythingMatcherEEOT_RNSt16remove_referenceIS5_E4typeE
FN:74,_ZSt7forwardISt5tupleIJEEEOT_RNSt16remove_referenceIS2_E4typeE
FNDA:5,_ZSt7forwardISt5tupleIJEEEOT_RNSt16remove_referenceIS2_E4typeE
FN:74,_ZSt7forwardIOPKN7testing8internal11MatcherBaseIRKSt5tupleIJEEEEEOT_RNSt16remove_referenceISB_E4typeE
FNDA:0,_ZSt7forwardIOPKN7testing8internal11MatcherBaseIRKSt5tupleIJEEEEEOT_RNSt16remove_referenceISB_E4typeE
FN:99,_ZSt4moveIRNSt7__cxx1112basic_stringIcSt11char_traitsIcESaIcEEEEONSt16remove_referenceIT_E4typeEOS8_
FNDA:110,_ZSt4moveIRNSt7__cxx1112basic_stringIcSt11char_traitsIcESaIcEEEEONSt16remove_referenceIT_E4typeEOS8_
FN:99,_ZSt4moveIRN9sharedLib8PlaylistEEONSt16remove_referenceIT_E4typeEOS4_
FNDA:3,_ZSt4moveIRN9sharedLib8PlaylistEEONSt16remove_referenceIT_E4typeEOS4_
FN:99,_ZSt4moveIRN9sharedLib3URLEEONSt16remove_referenceIT_E4typeEOS4_
FNDA:14,_ZSt4moveIRN9sharedLib3URLEEONSt16remove_referenceIT_E4typeEOS4_
FN:99,_ZSt4moveIRSaIcEEONSt16remove_referenceIT_E4typeEOS3_
FNDA:0,_ZSt4moveIRSaIcEEONSt16remove_referenceIT_E4typeEOS3_
FN:99,_ZSt4moveIRPNSt7__cxx1118basic_stringstreamIcSt11char_traitsIcESaIcEEEEONSt16remove_referenceIT_E4typeEOS9_
FNDA:66,_ZSt4moveIRPNSt7__cxx1118basic_stringstreamIcSt11char_traitsIcESaIcEEEEONSt16remove_referenceIT_E4typeEOS9_
FN:99,_ZSt4moveIRPNSt7__cxx1112basic_stringIcSt11char_traitsIcESaIcEEEEONSt16remove_referenceIT_E4typeEOS9_
FNDA:0,_ZSt4moveIRPNSt7__cxx1112basic_stringIcSt11char_traitsIcESaIcEEEEONSt16remove_referenceIT_E4typeEOS9_
FN:99,_ZSt4moveIRSt5tupleIJEEEONSt16remove_referenceIT_E4typeEOS4_
FNDA:8,_ZSt4moveIRSt5tupleIJEEEONSt16remove_referenceIT_E4typeEOS4_
FN:99,_ZSt4moveIRZN36mMessageGroup_MockmMessageGroup_Test8TestBodyEvEUlRKN9__gnu_cxx17__normal_iteratorIPN9sharedLib7MessageESt6vectorIS4_SaIS4_EEEESB_E_EONSt16remove_referenceIT_E4typeEOSF_
FNDA:3,_ZSt4moveIRZN36mMessageGroup_MockmMessageGroup_Test8TestBodyEvEUlRKN9__gnu_cxx17__normal_iteratorIPN9sharedLib7MessageESt6vectorIS4_SaIS4_EEEESB_E_EONSt16remove_referenceIT_E4typeEOSF_
FN:99,_ZSt4moveIRPN7testing8internal18ActionResultHolderIvEEEONSt16remove_referenceIT_E4typeEOS7_
FNDA:4,_ZSt4moveIRPN7testing8internal18ActionResultHolderIvEEEONSt16remove_referenceIT_E4typeEOS7_
FN:99,_ZSt4moveIRZN6client9checkURLsIN9sharedLib8PlaylistEEEbNSt6vectorIT_SaIS5_EE8iteratorES8_EUlRKS3_E_EONSt16remove_referenceIS5_E4typeEOS5_
FNDA:6,_ZSt4moveIRZN6client9checkURLsIN9sharedLib8PlaylistEEEbNSt6vectorIT_SaIS5_EE8iteratorES8_EUlRKS3_E_EONSt16remove_referenceIS5_E4typeEOS5_
FN:99,_ZSt4moveIRZN6client9checkURLsIN9sharedLib4SongEEEbNSt6vectorIT_SaIS5_EE8iteratorES8_EUlRKS3_E_EONSt16remove_referenceIS5_E4typeEOS5_
FNDA:6,_ZSt4moveIRZN6client9checkURLsIN9sharedLib4SongEEEbNSt6vectorIT_SaIS5_EE8iteratorES8_EUlRKS3_E_EONSt16remove_referenceIS5_E4typeEOS5_
FN:99,_ZSt4moveIRSt10shared_ptrIN7testing8internal15ExpectationBaseEEEONSt16remove_referenceIT_E4typeEOS7_
FNDA:0,_ZSt4moveIRSt10shared_ptrIN7testing8internal15ExpectationBaseEEEONSt16remove_referenceIT_E4typeEOS7_
FN:99,_ZSt4moveIRN9sharedLib4SongEEONSt16remove_referenceIT_E4typeEOS4_
FNDA:3,_ZSt4moveIRN9sharedLib4SongEEONSt16remove_referenceIT_E4typeEOS4_
DA:47,3
DA:48,3
DA:47,0
DA:48,0
DA:47,0
DA:48,0
DA:47,0
DA:48,0
DA:47,3
DA:48,3
DA:74,5
DA:75,5
DA:74,0
DA:75,0
DA:74,0
DA:75,0
DA:74,0
DA:75,0
DA:74,0
DA:75,0
DA:74,0
DA:75,0
DA:74,6
DA:75,6
DA:74,6
DA:75,6
DA:74,9
DA:75,9
DA:74,9
DA:75,9
DA:74,0
DA:75,0
DA:74,52
DA:75,52
DA:74,8
DA:75,8
DA:74,56
DA:75,56
DA:99,8
DA:100,8
DA:99,0
DA:100,0
DA:99,3
DA:100,3
DA:99,3
DA:100,3
DA:99,6
DA:100,6
DA:99,6
DA:100,6
DA:99,4
DA:100,4
DA:99,3
DA:100,3
DA:99,0
DA:100,0
DA:99,66
DA:100,66
DA:99,0
DA:100,0
DA:99,14
DA:100,14
DA:99,110
DA:100,110
end_of_record
SF:/usr/include/c++/9/bits/stl_uninitialized.h
FN:76,_ZNSt20__uninitialized_copyILb0EE13__uninit_copyISt13move_iteratorIPSt10shared_ptrIN7testing8internal15ExpectationBaseEEES8_EET0_T_SB_SA_
FNDA:0,_ZNSt20__uninitialized_copyILb0EE13__uninit_copyISt13move_iteratorIPSt10shared_ptrIN7testing8internal15ExpectationBaseEEES8_EET0_T_SB_SA_
FN:76,_ZNSt20__uninitialized_copyILb0EE13__uninit_copyISt13move_iteratorIPN9sharedLib4SongEES5_EET0_T_S8_S7_
FNDA:0,_ZNSt20__uninitialized_copyILb0EE13__uninit_copyISt13move_iteratorIPN9sharedLib4SongEES5_EET0_T_S8_S7_
FN:76,_ZNSt20__uninitialized_copyILb0EE13__uninit_copyISt13move_iteratorIPN9sharedLib8PlaylistEES5_EET0_T_S8_S7_
FNDA:0,_ZNSt20__uninitialized_copyILb0EE13__uninit_copyISt13move_iteratorIPN9sharedLib8PlaylistEES5_EET0_T_S8_S7_
FN:99,_ZNSt20__uninitialized_copyILb1EE13__uninit_copyISt13move_iteratorIPN9sharedLib8PlatformEES5_EET0_T_S8_S7_
FNDA:0,_ZNSt20__uninitialized_copyILb1EE13__uninit_copyISt13move_iteratorIPN9sharedLib8PlatformEES5_EET0_T_S8_S7_
FN:115,_ZSt18uninitialized_copyISt13move_iteratorIPSt10shared_ptrIN7testing8internal15ExpectationBaseEEES6_ET0_T_S9_S8_
FNDA:0,_ZSt18uninitialized_copyISt13move_iteratorIPSt10shared_ptrIN7testing8internal15ExpectationBaseEEES6_ET0_T_S9_S8_
FN:115,_ZSt18uninitialized_copyISt13move_iteratorIPN9sharedLib8PlaylistEES3_ET0_T_S6_S5_
FNDA:0,_ZSt18uninitialized_copyISt13move_iteratorIPN9sharedLib8PlaylistEES3_ET0_T_S6_S5_
FN:115,_ZSt18uninitialized_copyISt13move_iteratorIPN9sharedLib4SongEES3_ET0_T_S6_S5_
FNDA:0,_ZSt18uninitialized_copyISt13move_iteratorIPN9sharedLib4SongEES3_ET0_T_S6_S5_
FN:115,_ZSt18uninitialized_copyISt13move_iteratorIPN9sharedLib8PlatformEES3_ET0_T_S6_S5_
FNDA:0,_ZSt18uninitialized_copyISt13move_iteratorIPN9sharedLib8PlatformEES3_ET0_T_S6_S5_
FN:305,_ZSt22__uninitialized_copy_aISt13move_iteratorIPN9sharedLib8PlaylistEES3_S2_ET0_T_S6_S5_RSaIT1_E
FNDA:0,_ZSt22__uninitialized_copy_aISt13move_iteratorIPN9sharedLib8PlaylistEES3_S2_ET0_T_S6_S5_RSaIT1_E
FN:305,_ZSt22__uninitialized_copy_aISt13move_iteratorIPN9sharedLib4SongEES3_S2_ET0_T_S6_S5_RSaIT1_E
FNDA:0,_ZSt22__uninitialized_copy_aISt13move_iteratorIPN9sharedLib4SongEES3_S2_ET0_T_S6_S5_RSaIT1_E
FN:305,_ZSt22__uninitialized_copy_aISt13move_iteratorIPSt10shared_ptrIN7testing8internal15ExpectationBaseEEES6_S5_ET0_T_S9_S8_RSaIT1_E
FNDA:0,_ZSt22__uninitialized_copy_aISt13move_iteratorIPSt10shared_ptrIN7testing8internal15ExpectationBaseEEES6_S5_ET0_T_S9_S8_RSaIT1_E
FN:305,_ZSt22__uninitialized_copy_aISt13move_iteratorIPN9sharedLib8PlatformEES3_S2_ET0_T_S6_S5_RSaIT1_E
FNDA:0,_ZSt22__uninitialized_copy_aISt13move_iteratorIPN9sharedLib8PlatformEES3_S2_ET0_T_S6_S5_RSaIT1_E
FN:323,_ZSt34__uninitialized_move_if_noexcept_aIPN9sharedLib8PlaylistES2_SaIS1_EET0_T_S5_S4_RT1_
FNDA:0,_ZSt34__uninitialized_move_if_noexcept_aIPN9sharedLib8PlaylistES2_SaIS1_EET0_T_S5_S4_RT1_
FN:323,_ZSt34__uninitialized_move_if_noexcept_aIPN9sharedLib4SongES2_SaIS1_EET0_T_S5_S4_RT1_
FNDA:0,_ZSt34__uninitialized_move_if_noexcept_aIPN9sharedLib4SongES2_SaIS1_EET0_T_S5_S4_RT1_
FN:323,_ZSt34__uninitialized_move_if_noexcept_aIPN9sharedLib8PlatformES2_SaIS1_EET0_T_S5_S4_RT1_
FNDA:0,_ZSt34__uninitialized_move_if_noexcept_aIPN9sharedLib8PlatformES2_SaIS1_EET0_T_S5_S4_RT1_
FN:323,_ZSt34__uninitialized_move_if_noexcept_aIPSt10shared_ptrIN7testing8internal15ExpectationBaseEES5_SaIS4_EET0_T_S8_S7_RT1_
FNDA:0,_ZSt34__uninitialized_move_if_noexcept_aIPSt10shared_ptrIN7testing8internal15ExpectationBaseEES5_SaIS4_EET0_T_S8_S7_RT1_
FN:905,_ZSt19__relocate_object_aIN9sharedLib8PlaylistES1_SaIS1_EEvPT_PT0_RT1_
FNDA:3,_ZSt19__relocate_object_aIN9sharedLib8PlaylistES1_SaIS1_EEvPT_PT0_RT1_
FN:905,_ZSt19__relocate_object_aIN9sharedLib4SongES1_SaIS1_EEvPT_PT0_RT1_
FNDA:3,_ZSt19__relocate_object_aIN9sharedLib4SongES1_SaIS1_EEvPT_PT0_RT1_
FN:905,_ZSt19__relocate_object_aISt10shared_ptrIN7testing8internal15ExpectationBaseEES4_SaIS4_EEvPT_PT0_RT1_
FNDA:0,_ZSt19__relocate_object_aISt10shared_ptrIN7testing8internal15ExpectationBaseEES4_SaIS4_EEvPT_PT0_RT1_
FN:924,_ZSt14__relocate_a_1IN9sharedLib8PlatformES1_ENSt9enable_ifIXsrSt24__is_bitwise_relocatableIT_vE5valueEPS4_E4typeES6_S6_S6_RSaIT0_E
FNDA:2,_ZSt14__relocate_a_1IN9sharedLib8PlatformES1_ENSt9enable_ifIXsrSt24__is_bitwise_relocatableIT_vE5valueEPS4_E4typeES6_S6_S6_RSaIT0_E
FN:936,_ZSt14__relocate_a_1IPN9sharedLib8PlaylistES2_SaIS1_EET0_T_S5_S4_RT1_
FNDA:14,_ZSt14__relocate_a_1IPN9sharedLib8PlaylistES2_SaIS1_EET0_T_S5_S4_RT1_
FN:936,_ZSt14__relocate_a_1IPN9sharedLib4SongES2_SaIS1_EET0_T_S5_S4_RT1_
FNDA:14,_ZSt14__relocate_a_1IPN9sharedLib4SongES2_SaIS1_EET0_T_S5_S4_RT1_
FN:936,_ZSt14__relocate_a_1IPSt10shared_ptrIN7testing8internal15ExpectationBaseEES5_SaIS4_EET0_T_S8_S7_RT1_
FNDA:6,_ZSt14__relocate_a_1IPSt10shared_ptrIN7testing8internal15ExpectationBaseEES5_SaIS4_EET0_T_S8_S7_RT1_
FN:958,_ZSt12__relocate_aIPN9sharedLib8PlatformES2_SaIS1_EET0_T_S5_S4_RT1_
FNDA:2,_ZSt12__relocate_aIPN9sharedLib8PlatformES2_SaIS1_EET0_T_S5_S4_RT1_
FN:958,_ZSt12__relocate_aIPN9sharedLib4SongES2_SaIS1_EET0_T_S5_S4_RT1_
FNDA:14,_ZSt12__relocate_aIPN9sharedLib4SongES2_SaIS1_EET0_T_S5_S4_RT1_
FN:958,_ZSt12__relocate_aIPN9sharedLib8PlaylistES2_SaIS1_EET0_T_S5_S4_RT1_
FNDA:14,_ZSt12__relocate_aIPN9sharedLib8PlaylistES2_SaIS1_EET0_T_S5_S4_RT1_
FN:958,_ZSt12__relocate_aIPSt10shared_ptrIN7testing8internal15ExpectationBaseEES5_SaIS4_EET0_T_S8_S7_RT1_
FNDA:6,_ZSt12__relocate_aIPSt10shared_ptrIN7testing8internal15ExpectationBaseEES5_SaIS4_EET0_T_S8_S7_RT1_
DA:76,0
DA:79,0
DA:82,0
DA:83,0
DA:84,0
DA:86,0
DA:88,0
DA:89,0
DA:76,0
DA:79,0
DA:82,0
DA:83,0
DA:84,0
DA:86,0
DA:88,0
DA:89,0
DA:76,0
DA:79,0
DA:82,0
DA:83,0
DA:84,0
DA:86,0
DA:88,0
DA:89,0
DA:99,0
DA:101,0
DA:115,0
DA:134,0
DA:140,0
DA:115,0
DA:134,0
DA:140,0
DA:115,0
DA:134,0
DA:140,0
DA:115,0
DA:134,0
DA:140,0
DA:305,0
DA:307,0
DA:305,0
DA:307,0
DA:305,0
DA:307,0
DA:305,0
DA:307,0
DA:323,0
DA:329,0
DA:330,0
DA:323,0
DA:329,0
DA:330,0
DA:323,0
DA:329,0
DA:330,0
DA:323,0
DA:329,0
DA:330,0
DA:905,0
DA:912,0
DA:913,0
DA:914,0
DA:905,3
DA:912,3
DA:913,3
DA:914,3
DA:905,3
DA:912,3
DA:913,3
DA:914,3
DA:924,2
DA:927,2
DA:928,2
DA:929,0
DA:930,2
DA:936,6
DA:948,6
DA:949,6
DA:950,0
DA:952,6
DA:936,14
DA:948,14
DA:949,17
DA:950,3
DA:952,14
DA:936,14
DA:948,14
DA:949,17
DA:950,3
DA:952,14
DA:958,6
DA:964,6
DA:966,6
DA:958,2
DA:964,2
DA:966,2
DA:958,14
DA:964,14
DA:966,14
DA:958,14
DA:964,14
DA:966,14
end_of_record
SF:/usr/include/c++/9/bits/basic_string.tcc
FN:206,_ZNSt7__cxx1112basic_stringIcSt11char_traitsIcESaIcEE12_M_constructIPcEEvT_S7_St20forward_iterator_tag
FNDA:0,_ZNSt7__cxx1112basic_stringIcSt11char_traitsIcESaIcEE12_M_constructIPcEEvT_S7_St20forward_iterator_tag
FN:206,_ZNSt7__cxx1112basic_stringIcSt11char_traitsIcESaIcEE12_M_constructIPKcEEvT_S8_St20forward_iterator_tag
FNDA:0,_ZNSt7__cxx1112basic_stringIcSt11char_traitsIcESaIcEE12_M_constructIPKcEEvT_S8_St20forward_iterator_tag
DA:206,0
DA:211,0
DA:212,0
DA:215,0
DA:217,0
DA:219,0
DA:220,0
DA:225,0
DA:226,0
DA:228,0
DA:229,0
DA:232,0
DA:233,0
DA:206,0
DA:211,0
DA:212,0
DA:215,0
DA:217,0
DA:219,0
DA:220,0
DA:225,0
DA:226,0
DA:228,0
DA:229,0
DA:232,0
DA:233,0
end_of_record
SF:/usr/include/c++/9/new
FN:173,_ZnwmPv
FNDA:0,_ZnwmPv
DA:173,0
DA:174,0
end_of_record
SF:/usr/include/c++/9/bits/stl_tree.h
FN:146,_ZNSt20_Rb_tree_key_compareIN7testing11Expectation4LessEEC2Ev
FNDA:3,_ZNSt20_Rb_tree_key_compareIN7testing11Expectation4LessEEC2Ev
FN:173,_ZNSt15_Rb_tree_headerC2Ev
FNDA:8,_ZNSt15_Rb_tree_headerC2Ev
FN:206,_ZNSt15_Rb_tree_header8_M_resetEv
FNDA:9,_ZNSt15_Rb_tree_header8_M_resetEv
FN:234,_ZNSt13_Rb_tree_nodeIN7testing11ExpectationEE9_M_valptrEv
FNDA:0,_ZNSt13_Rb_tree_nodeIN7testing11ExpectationEE9_M_valptrEv
FN:238,_ZNKSt13_Rb_tree_nodeIN7testing11ExpectationEE9_M_valptrEv
FNDA:0,_ZNKSt13_Rb_tree_nodeIN7testing11ExpectationEE9_M_valptrEv
FN:345,_ZNSt23_Rb_tree_const_iteratorIN7testing11ExpectationEEC2EPKSt18_Rb_tree_node_base
FNDA:12,_ZNSt23_Rb_tree_const_iteratorIN7testing11ExpectationEEC2EPKSt18_Rb_tree_node_base
FN:360,_ZNKSt23_Rb_tree_const_iteratorIN7testing11ExpectationEEptEv
FNDA:0,_ZNKSt23_Rb_tree_const_iteratorIN7testing11ExpectationEEptEv
FN:364,_ZNSt23_Rb_tree_const_iteratorIN7testing11ExpectationEEppEv
FNDA:0,_ZNSt23_Rb_tree_const_iteratorIN7testing11ExpectationEEppEv
FN:398,_ZStneRKSt23_Rb_tree_const_iteratorIN7testing11ExpectationEES4_
FNDA:6,_ZStneRKSt23_Rb_tree_const_iteratorIN7testing11ExpectationEES4_
FN:566,_ZNSt8_Rb_treeIN7testing11ExpectationES1_St9_IdentityIS1_ENS1_4LessESaIS1_EE21_M_get_Node_allocatorEv
FNDA:0,_ZNSt8_Rb_treeIN7testing11ExpectationES1_St9_IdentityIS1_ENS1_4LessESaIS1_EE21_M_get_Node_allocatorEv
FN:583,_ZNSt8_Rb_treeIN7testing11ExpectationES1_St9_IdentityIS1_ENS1_4LessESaIS1_EE11_M_put_nodeEPSt13_Rb_tree_nodeIS1_E
FNDA:0,_ZNSt8_Rb_treeIN7testing11ExpectationES1_St9_IdentityIS1_ENS1_4LessESaIS1_EE11_M_put_nodeEPSt13_Rb_tree_nodeIS1_E
FN:637,_ZNSt8_Rb_treeIN7testing11ExpectationES1_St9_IdentityIS1_ENS1_4LessESaIS1_EE15_M_destroy_nodeEPSt13_Rb_tree_nodeIS1_E
FNDA:0,_ZNSt8_Rb_treeIN7testing11ExpectationES1_St9_IdentityIS1_ENS1_4LessESaIS1_EE15_M_destroy_nodeEPSt13_Rb_tree_nodeIS1_E
FN:648,_ZNSt8_Rb_treeIN7testing11ExpectationES1_St9_IdentityIS1_ENS1_4LessESaIS1_EE12_M_drop_nodeEPSt13_Rb_tree_nodeIS1_E
FNDA:0,_ZNSt8_Rb_treeIN7testing11ExpectationES1_St9_IdentityIS1_ENS1_4LessESaIS1_EE12_M_drop_nodeEPSt13_Rb_tree_nodeIS1_E
FN:680,_ZNSt8_Rb_treeIN7testing11ExpectationES1_St9_IdentityIS1_ENS1_4LessESaIS1_EE13_Rb_tree_implIS4_Lb1EEC2Ev
FNDA:3,_ZNSt8_Rb_treeIN7testing11ExpectationES1_St9_IdentityIS1_ENS1_4LessESaIS1_EE13_Rb_tree_implIS4_Lb1EEC2Ev
FN:749,_ZNSt8_Rb_treeIN7testing11ExpectationES1_St9_IdentityIS1_ENS1_4LessESaIS1_EE8_M_beginEv
FNDA:3,_ZNSt8_Rb_treeIN7testing11ExpectationES1_St9_IdentityIS1_ENS1_4LessESaIS1_EE8_M_beginEv
FN:794,_ZNSt8_Rb_treeIN7testing11ExpectationES1_St9_IdentityIS1_ENS1_4LessESaIS1_EE7_S_leftEPSt18_Rb_tree_node_base
FNDA:0,_ZNSt8_Rb_treeIN7testing11ExpectationES1_St9_IdentityIS1_ENS1_4LessESaIS1_EE7_S_leftEPSt18_Rb_tree_node_base
FN:802,_ZNSt8_Rb_treeIN7testing11ExpectationES1_St9_IdentityIS1_ENS1_4LessESaIS1_EE8_S_rightEPSt18_Rb_tree_node_base
FNDA:0,_ZNSt8_Rb_treeIN7testing11ExpectationES1_St9_IdentityIS1_ENS1_4LessESaIS1_EE8_S_rightEPSt18_Rb_tree_node_base
FN:944,_ZNSt8_Rb_treeIN7testing11ExpectationES1_St9_IdentityIS1_ENS1_4LessESaIS1_EEC2Ev
FNDA:3,_ZNSt8_Rb_treeIN7testing11ExpectationES1_St9_IdentityIS1_ENS1_4LessESaIS1_EEC2Ev
FN:999,_ZNSt8_Rb_treeIN7testing11ExpectationES1_St9_IdentityIS1_ENS1_4LessESaIS1_EED2Ev
FNDA:3,_ZNSt8_Rb_treeIN7testing11ExpectationES1_St9_IdentityIS1_ENS1_4LessESaIS1_EED2Ev
FN:1015,_ZNKSt8_Rb_treeIN7testing11ExpectationES1_St9_IdentityIS1_ENS1_4LessESaIS1_EE5beginEv
FNDA:6,_ZNKSt8_Rb_treeIN7testing11ExpectationES1_St9_IdentityIS1_ENS1_4LessESaIS1_EE5beginEv
FN:1023,_ZNKSt8_Rb_treeIN7testing11ExpectationES1_St9_IdentityIS1_ENS1_4LessESaIS1_EE3endEv
FNDA:6,_ZNKSt8_Rb_treeIN7testing11ExpectationES1_St9_IdentityIS1_ENS1_4LessESaIS1_EE3endEv
FN:1912,_ZNSt8_Rb_treeIN7testing11ExpectationES1_St9_IdentityIS1_ENS1_4LessESaIS1_EE8_M_eraseEPSt13_Rb_tree_nodeIS1_E
FNDA:3,_ZNSt8_Rb_treeIN7testing11ExpectationES1_St9_IdentityIS1_ENS1_4LessESaIS1_EE8_M_eraseEPSt13_Rb_tree_nodeIS1_E
DA:146,3
DA:150,3
DA:173,8
DA:174,8
DA:175,8
DA:176,8
DA:177,8
DA:206,9
DA:208,9
DA:209,9
DA:210,9
DA:211,9
DA:212,9
DA:234,0
DA:235,0
DA:238,0
DA:239,0
DA:345,12
DA:346,12
DA:360,0
DA:361,0
DA:364,0
DA:366,0
DA:367,0
DA:398,6
DA:399,6
DA:566,0
DA:567,0
DA:583,0
DA:584,0
DA:637,0
DA:642,0
DA:643,0
DA:645,0
DA:648,0
DA:650,0
DA:651,0
DA:652,0
DA:680,3
DA:684,3
DA:685,3
DA:749,3
DA:750,3
DA:794,0
DA:795,0
DA:802,0
DA:803,0
DA:944,3
DA:999,3
DA:1000,3
DA:1015,6
DA:1016,6
DA:1023,6
DA:1024,6
DA:1912,3
DA:1916,3
DA:1918,0
DA:1919,0
DA:1920,0
DA:1921,0
DA:1923,3
end_of_record
SF:/usr/local/include/gtest/gtest-assertion-result.h
FN:171,_ZNK7testing15AssertionResultcvbEv
FNDA:12,_ZNK7testing15AssertionResultcvbEv
FN:180,_ZNK7testing15AssertionResult7messageEv
FNDA:0,_ZNK7testing15AssertionResult7messageEv
FN:184,_ZNK7testing15AssertionResult15failure_messageEv
FNDA:0,_ZNK7testing15AssertionResult15failure_messageEv
DA:171,12
DA:180,0
DA:181,0
DA:184,0
end_of_record
SF:/usr/local/include/gtest/internal/gtest-port.h
FN:987,_ZN7testing8internal8GTestLog9GetStreamEv
FNDA:0,_ZN7testing8internal8GTestLog9GetStreamEv
FN:1104,_ZN7testing8internal9DownCast_IPNS0_18ActionResultHolderIvEENS0_29UntypedActionResultHolderBaseEEET_PT0_
FNDA:4,_ZN7testing8internal9DownCast_IPNS0_18ActionResultHolderIvEENS0_29UntypedActionResultHolderBaseEEET_PT0_
FN:1129,_ZN7testing8internal27CheckedDowncastToActualTypeINS0_11ThreadLocalIPNS_8SequenceEE11ValueHolderENS0_26ThreadLocalValueHolderBaseEEEPT_PT0_
FNDA:2,_ZN7testing8internal27CheckedDowncastToActualTypeINS0_11ThreadLocalIPNS_8SequenceEE11ValueHolderENS0_26ThreadLocalValueHolderBaseEEEPT_PT0_
FN:1621,_ZN7testing8internal9MutexBase4LockEv
FNDA:42,_ZN7testing8internal9MutexBase4LockEv
FN:1628,_ZN7testing8internal9MutexBase6UnlockEv
FNDA:42,_ZN7testing8internal9MutexBase6UnlockEv
FN:1639,_ZNK7testing8internal9MutexBase10AssertHeldEv
FNDA:54,_ZNK7testing8internal9MutexBase10AssertHeldEv
FN:1697,_ZN7testing8internal14GTestMutexLockC2EPNS0_9MutexBaseE
FNDA:34,_ZN7testing8internal14GTestMutexLockC2EPNS0_9MutexBaseE
FN:1700,_ZN7testing8internal14GTestMutexLockD2Ev
FNDA:34,_ZN7testing8internal14GTestMutexLockD2Ev
FN:1747,_ZNK7testing8internal11ThreadLocalIPNS_8SequenceEE7pointerEv
FNDA:3,_ZNK7testing8internal11ThreadLocalIPNS_8SequenceEE7pointerEv
FN:1748,_ZNK7testing8internal11ThreadLocalIPNS_8SequenceEE3getEv
FNDA:3,_ZNK7testing8internal11ThreadLocalIPNS_8SequenceEE3getEv
FN:1758,_ZN7testing8internal11ThreadLocalIPNS_8SequenceEE11ValueHolder7pointerEv
FNDA:3,_ZN7testing8internal11ThreadLocalIPNS_8SequenceEE11ValueHolder7pointerEv
FN:1774,_ZNK7testing8internal11ThreadLocalIPNS_8SequenceEE16GetOrCreateValueEv
FNDA:3,_ZNK7testing8internal11ThreadLocalIPNS_8SequenceEE16GetOrCreateValueEv
DA:987,0
DA:1104,4
DA:1118,4
DA:1120,4
DA:1129,2
DA:1131,2
DA:1137,2
DA:1621,42
DA:1622,42
DA:1623,42
DA:1624,42
DA:1625,42
DA:1628,42
DA:1633,42
DA:1634,42
DA:1635,42
DA:1639,54
DA:1640,54
DA:1641,0
DA:1642,54
DA:1697,34
DA:1698,34
DA:1700,34
DA:1747,3
DA:1748,3
DA:1758,3
DA:1774,3
DA:1776,3
DA:1777,3
DA:1778,2
DA:1781,1
DA:1782,1
DA:1783,1
DA:1784,1
end_of_record
SF:/usr/local/include/gtest/gtest-message.h
end_of_record
SF:/home/aint/park/tempMusicial/Musicial/qt/lib/test.cpp
FN:7,_ZN16mockMessageGroup21MockrmockMessageGroupEv
FNDA:1,_ZN16mockMessageGroup21MockrmockMessageGroupEv
FN:8,_ZN16mockMessageGroup14MockreceiveNetEv
FNDA:1,_ZN16mockMessageGroup14MockreceiveNetEv
FN:8,_ZN16mockMessageGroup20gmock_MockreceiveNetEv
FNDA:1,_ZN16mockMessageGroup20gmock_MockreceiveNetEv
FN:9,_ZN16mockMessageGroup11MocksendNetEv
FNDA:1,_ZN16mockMessageGroup11MocksendNetEv
FN:9,_ZN16mockMessageGroup17gmock_MocksendNetEv
FNDA:1,_ZN16mockMessageGroup17gmock_MocksendNetEv
FN:10,_ZN16mockMessageGroup8MocksendEv
FNDA:1,_ZN16mockMessageGroup8MocksendEv
FN:10,_ZN16mockMessageGroup14gmock_MocksendEv
FNDA:1,_ZN16mockMessageGroup14gmock_MocksendEv
FN:14,_ZN16mockMessageGroupC2ERKNSt7__cxx1112basic_stringIcSt11char_traitsIcESaIcEEEmRKN9sharedLib8PlatformERKSt6vectorINS8_8PlaylistESaISD_EERKSC_INS8_4SongESaISI_EERKSC_IS9_SaIS9_EE
FNDA:1,_ZN16mockMessageGroupC2ERKNSt7__cxx1112basic_stringIcSt11char_traitsIcESaIcEEEmRKN9sharedLib8PlatformERKSt6vectorINS8_8PlaylistESaISD_EERKSC_INS8_4SongESaISI_EERKSC_IS9_SaIS9_EE
FN:24,_ZN16mockMessageGroup11receiveNettERKN9sharedLib7MessageE
FNDA:1,_ZN16mockMessageGroup11receiveNettERKN9sharedLib7MessageE
FN:30,_ZN16mockMessageGroup7sendNetEv
FNDA:1,_ZN16mockMessageGroup7sendNetEv
FN:36,_ZN16mockMessageGroup5senddERKSt8functionIFvRKN9__gnu_cxx17__normal_iteratorIPN9sharedLib7MessageESt6vectorIS4_SaIS4_EEEESB_EE
FNDA:1,_ZN16mockMessageGroup5senddERKSt8functionIFvRKN9__gnu_cxx17__normal_iteratorIPN9sharedLib7MessageESt6vectorIS4_SaIS4_EEEESB_EE
FN:46,_ZN36mMessageGroup_MockmMessageGroup_TestC2Ev
FNDA:1,_ZN36mMessageGroup_MockmMessageGroup_TestC2Ev
FN:46,_ZN36mMessageGroup_MockmMessageGroup_Test8TestBodyEv
FNDA:1,_ZN36mMessageGroup_MockmMessageGroup_Test8TestBodyEv
FN:46,_ZN36mMessageGroup_MockmMessageGroup_TestD2Ev
FNDA:1,_ZN36mMessageGroup_MockmMessageGroup_TestD2Ev
FN:46,_ZN36mMessageGroup_MockmMessageGroup_TestD0Ev
FNDA:1,_ZN36mMessageGroup_MockmMessageGroup_TestD0Ev
FN:66,_ZZN36mMessageGroup_MockmMessageGroup_Test8TestBodyEvENKUlRKN9__gnu_cxx17__normal_iteratorIPN9sharedLib7MessageESt6vectorIS3_SaIS3_EEEESA_E_clESA_SA_
FNDA:3,_ZZN36mMessageGroup_MockmMessageGroup_Test8TestBodyEvENKUlRKN9__gnu_cxx17__normal_iteratorIPN9sharedLib7MessageESt6vectorIS3_SaIS3_EEEESA_E_clESA_SA_
FN:77,_ZN32getPlatform_getPlatform_int_TestC2Ev
FNDA:1,_ZN32getPlatform_getPlatform_int_TestC2Ev
FN:77,_ZN32getPlatform_getPlatform_int_Test8TestBodyEv
FNDA:1,_ZN32getPlatform_getPlatform_int_Test8TestBodyEv
FN:77,_ZN32getPlatform_getPlatform_int_TestD2Ev
FNDA:1,_ZN32getPlatform_getPlatform_int_TestD2Ev
FN:77,_ZN32getPlatform_getPlatform_int_TestD0Ev
FNDA:1,_ZN32getPlatform_getPlatform_int_TestD0Ev
FN:83,_ZN23checkURLs_allRight_Test8TestBodyEv
FNDA:1,_ZN23checkURLs_allRight_Test8TestBodyEv
FN:83,_ZN23checkURLs_allRight_TestD2Ev
FNDA:1,_ZN23checkURLs_allRight_TestD2Ev
FN:83,_ZN23checkURLs_allRight_TestD0Ev
FNDA:1,_ZN23checkURLs_allRight_TestD0Ev
FN:83,_ZN23checkURLs_allRight_TestC2Ev
FNDA:1,_ZN23checkURLs_allRight_TestC2Ev
FN:102,_ZN23checkURLs_allFalse_Test8TestBodyEv
FNDA:1,_ZN23checkURLs_allFalse_Test8TestBodyEv
FN:102,_ZN23checkURLs_allFalse_TestD2Ev
FNDA:1,_ZN23checkURLs_allFalse_TestD2Ev
FN:102,_ZN23checkURLs_allFalse_TestD0Ev
FNDA:1,_ZN23checkURLs_allFalse_TestD0Ev
FN:102,_ZN23checkURLs_allFalse_TestC2Ev
FNDA:1,_ZN23checkURLs_allFalse_TestC2Ev
FN:120,_ZN24checkURLs_semiFalse_Test8TestBodyEv
FNDA:1,_ZN24checkURLs_semiFalse_Test8TestBodyEv
FN:120,_ZN24checkURLs_semiFalse_TestD2Ev
FNDA:1,_ZN24checkURLs_semiFalse_TestD2Ev
FN:120,_ZN24checkURLs_semiFalse_TestD0Ev
FNDA:1,_ZN24checkURLs_semiFalse_TestD0Ev
FN:120,_ZN24checkURLs_semiFalse_TestC2Ev
FNDA:1,_ZN24checkURLs_semiFalse_TestC2Ev
DA:7,1
DA:8,1
DA:8,1
DA:9,1
DA:9,1
DA:10,1
DA:10,1
DA:14,1
DA:18,1
DA:19,1
DA:20,1
DA:21,1
DA:22,1
DA:24,1
DA:25,1
DA:26,1
DA:27,1
DA:30,1
DA:31,1
DA:32,1
DA:33,1
DA:36,1
DA:38,1
DA:39,1
DA:40,1
DA:46,1
DA:46,1
DA:46,1
DA:46,1
DA:47,2
DA:48,1
DA:49,1
DA:50,2
DA:51,1
DA:52,2
DA:53,2
DA:54,1
DA:55,2
DA:57,2
DA:58,1
DA:59,2
DA:60,1
DA:61,1
DA:62,1
DA:64,1
DA:66,1
DA:70,1
DA:71,1
DA:72,1
DA:73,1
DA:74,1
DA:75,1
DA:66,3
DA:68,3
DA:69,3
DA:77,1
DA:77,1
DA:77,1
DA:77,1
DA:78,2
DA:79,2
DA:80,2
DA:81,1
DA:83,1
DA:83,1
DA:83,1
DA:83,1
DA:84,2
DA:85,1
DA:86,2
DA:87,1
DA:88,1
DA:89,2
DA:90,1
DA:91,2
DA:92,1
DA:93,2
DA:94,1
DA:95,1
DA:96,2
DA:98,1
DA:99,1
DA:100,1
DA:102,1
DA:102,1
DA:102,1
DA:102,1
DA:103,2
DA:104,1
DA:105,2
DA:106,1
DA:107,1
DA:108,2
DA:109,1
DA:110,2
DA:111,1
DA:112,2
DA:113,1
DA:114,1
DA:116,1
DA:117,1
DA:118,1
DA:120,1
DA:120,1
DA:120,1
DA:120,1
DA:121,2
DA:122,1
DA:123,2
DA:124,1
DA:125,1
DA:126,2
DA:127,1
DA:128,2
DA:129,1
DA:130,2
DA:131,1
DA:132,1
DA:134,1
DA:135,1
DA:136,1
end_of_record
SF:/usr/include/c++/9/bits/alloc_traits.h
FN:442,_ZNSt16allocator_traitsISaIN9sharedLib8PlatformEEE8allocateERS2_m
FNDA:0,_ZNSt16allocator_traitsISaIN9sharedLib8PlatformEEE8allocateERS2_m
FN:442,_ZNSt16allocator_traitsISaIN9sharedLib4SongEEE8allocateERS2_m
FNDA:0,_ZNSt16allocator_traitsISaIN9sharedLib4SongEEE8allocateERS2_m
FN:442,_ZNSt16allocator_traitsISaIN9sharedLib8PlaylistEEE8allocateERS2_m
FNDA:0,_ZNSt16allocator_traitsISaIN9sharedLib8PlaylistEEE8allocateERS2_m
FN:442,_ZNSt16allocator_traitsISaISt10shared_ptrIN7testing8internal15ExpectationBaseEEEE8allocateERS5_m
FNDA:3,_ZNSt16allocator_traitsISaISt10shared_ptrIN7testing8internal15ExpectationBaseEEEE8allocateERS5_m
FN:468,_ZNSt16allocator_traitsISaIN9sharedLib8PlaylistEEE10deallocateERS2_PS1_m
FNDA:0,_ZNSt16allocator_traitsISaIN9sharedLib8PlaylistEEE10deallocateERS2_PS1_m
FN:468,_ZNSt16allocator_traitsISaISt13_Rb_tree_nodeIN7testing11ExpectationEEEE10deallocateERS4_PS3_m
FNDA:0,_ZNSt16allocator_traitsISaISt13_Rb_tree_nodeIN7testing11ExpectationEEEE10deallocateERS4_PS3_m
FN:468,_ZNSt16allocator_traitsISaIPKvEE10deallocateERS2_PS1_m
FNDA:0,_ZNSt16allocator_traitsISaIPKvEE10deallocateERS2_PS1_m
FN:468,_ZNSt16allocator_traitsISaIN9sharedLib7MessageEEE10deallocateERS2_PS1_m
FNDA:0,_ZNSt16allocator_traitsISaIN9sharedLib7MessageEEE10deallocateERS2_PS1_m
FN:468,_ZNSt16allocator_traitsISaIN9sharedLib8PlatformEEE10deallocateERS2_PS1_m
FNDA:0,_ZNSt16allocator_traitsISaIN9sharedLib8PlatformEEE10deallocateERS2_PS1_m
FN:468,_ZNSt16allocator_traitsISaIN9sharedLib4SongEEE10deallocateERS2_PS1_m
FNDA:0,_ZNSt16allocator_traitsISaIN9sharedLib4SongEEE10deallocateERS2_PS1_m
FN:468,_ZNSt16allocator_traitsISaISt10shared_ptrIN7testing8internal15ExpectationBaseEEEE10deallocateERS5_PS4_m
FNDA:3,_ZNSt16allocator_traitsISaISt10shared_ptrIN7testing8internal15ExpectationBaseEEEE10deallocateERS5_PS4_m
FN:481,_ZNSt16allocator_traitsISaIN9sharedLib8PlaylistEEE9constructIS1_JNS0_3URLERNS0_8PlatformEEEEvRS2_PT_DpOT0_
FNDA:1,_ZNSt16allocator_traitsISaIN9sharedLib8PlaylistEEE9constructIS1_JNS0_3URLERNS0_8PlatformEEEEvRS2_PT_DpOT0_
FN:481,_ZNSt16allocator_traitsISaIN9sharedLib4SongEEE9constructIS1_JNS0_3URLENS0_8PlatformEEEEvRS2_PT_DpOT0_
FNDA:6,_ZNSt16allocator_traitsISaIN9sharedLib4SongEEE9constructIS1_JNS0_3URLENS0_8PlatformEEEEvRS2_PT_DpOT0_
FN:481,_ZNSt16allocator_traitsISaIN9sharedLib8PlaylistEEE9constructIS1_JNS0_3URLENS0_8PlatformEEEEvRS2_PT_DpOT0_
FNDA:6,_ZNSt16allocator_traitsISaIN9sharedLib8PlaylistEEE9constructIS1_JNS0_3URLENS0_8PlatformEEEEvRS2_PT_DpOT0_
FN:481,_ZNSt16allocator_traitsISaIN9sharedLib8PlatformEEE9constructIS1_JS1_EEEvRS2_PT_DpOT0_
FNDA:1,_ZNSt16allocator_traitsISaIN9sharedLib8PlatformEEE9constructIS1_JS1_EEEvRS2_PT_DpOT0_
FN:481,_ZNSt16allocator_traitsISaIN9sharedLib4SongEEE9constructIS1_JNS0_3URLERNS0_8PlatformEEEEvRS2_PT_DpOT0_
FNDA:1,_ZNSt16allocator_traitsISaIN9sharedLib4SongEEE9constructIS1_JNS0_3URLERNS0_8PlatformEEEEvRS2_PT_DpOT0_
FN:481,_ZNSt16allocator_traitsISaISt10shared_ptrIN7testing8internal15ExpectationBaseEEEE9constructIS4_JS4_EEEvRS5_PT_DpOT0_
FNDA:0,_ZNSt16allocator_traitsISaISt10shared_ptrIN7testing8internal15ExpectationBaseEEEE9constructIS4_JS4_EEEvRS5_PT_DpOT0_
FN:481,_ZNSt16allocator_traitsISaISt10shared_ptrIN7testing8internal15ExpectationBaseEEEE9constructIS4_JRKS4_EEEvRS5_PT_DpOT0_
FNDA:3,_ZNSt16allocator_traitsISaISt10shared_ptrIN7testing8internal15ExpectationBaseEEEE9constructIS4_JRKS4_EEEvRS5_PT_DpOT0_
FN:481,_ZNSt16allocator_traitsISaIN9sharedLib8PlaylistEEE9constructIS1_JS1_EEEvRS2_PT_DpOT0_
FNDA:3,_ZNSt16allocator_traitsISaIN9sharedLib8PlaylistEEE9constructIS1_JS1_EEEvRS2_PT_DpOT0_
FN:481,_ZNSt16allocator_traitsISaIN9sharedLib4SongEEE9constructIS1_JS1_EEEvRS2_PT_DpOT0_
FNDA:3,_ZNSt16allocator_traitsISaIN9sharedLib4SongEEE9constructIS1_JS1_EEEvRS2_PT_DpOT0_
FN:494,_ZNSt16allocator_traitsISaISt13_Rb_tree_nodeIN7testing11ExpectationEEEE7destroyIS2_EEvRS4_PT_
FNDA:0,_ZNSt16allocator_traitsISaISt13_Rb_tree_nodeIN7testing11ExpectationEEEE7destroyIS2_EEvRS4_PT_
FN:494,_ZNSt16allocator_traitsISaIN9sharedLib8PlatformEEE7destroyIS1_EEvRS2_PT_
FNDA:0,_ZNSt16allocator_traitsISaIN9sharedLib8PlatformEEE7destroyIS1_EEvRS2_PT_
FN:494,_ZNSt16allocator_traitsISaIN9sharedLib4SongEEE7destroyIS1_EEvRS2_PT_
FNDA:3,_ZNSt16allocator_traitsISaIN9sharedLib4SongEEE7destroyIS1_EEvRS2_PT_
FN:494,_ZNSt16allocator_traitsISaIN9sharedLib8PlaylistEEE7destroyIS1_EEvRS2_PT_
FNDA:3,_ZNSt16allocator_traitsISaIN9sharedLib8PlaylistEEE7destroyIS1_EEvRS2_PT_
FN:494,_ZNSt16allocator_traitsISaISt10shared_ptrIN7testing8internal15ExpectationBaseEEEE7destroyIS4_EEvRS5_PT_
FNDA:0,_ZNSt16allocator_traitsISaISt10shared_ptrIN7testing8internal15ExpectationBaseEEEE7destroyIS4_EEvRS5_PT_
FN:504,_ZNSt16allocator_traitsISaIN9sharedLib8PlaylistEEE8max_sizeERKS2_
FNDA:14,_ZNSt16allocator_traitsISaIN9sharedLib8PlaylistEEE8max_sizeERKS2_
FN:504,_ZNSt16allocator_traitsISaIN9sharedLib4SongEEE8max_sizeERKS2_
FNDA:14,_ZNSt16allocator_traitsISaIN9sharedLib4SongEEE8max_sizeERKS2_
FN:504,_ZNSt16allocator_traitsISaIN9sharedLib8PlatformEEE8max_sizeERKS2_
FNDA:2,_ZNSt16allocator_traitsISaIN9sharedLib8PlatformEEE8max_sizeERKS2_
FN:504,_ZNSt16allocator_traitsISaISt10shared_ptrIN7testing8internal15ExpectationBaseEEEE8max_sizeERKS5_
FNDA:6,_ZNSt16allocator_traitsISaISt10shared_ptrIN7testing8internal15ExpectationBaseEEEE8max_sizeERKS5_
FN:513,_ZNSt16allocator_traitsISaIcEE37select_on_container_copy_constructionERKS0_
FNDA:0,_ZNSt16allocator_traitsISaIcEE37select_on_container_copy_constructionERKS0_
FN:567,_ZSt18__do_alloc_on_swapISaIPKvEEvRT_S4_St17integral_constantIbLb0EE
FNDA:4,_ZSt18__do_alloc_on_swapISaIPKvEEvRT_S4_St17integral_constantIbLb0EE
FN:571,_ZSt15__alloc_on_swapISaIPKvEEvRT_S4_
FNDA:4,_ZSt15__alloc_on_swapISaIPKvEEvRT_S4_
DA:442,3
DA:443,3
DA:442,0
DA:443,0
DA:442,0
DA:443,0
DA:442,0
DA:443,0
DA:468,3
DA:469,3
DA:468,0
DA:469,0
DA:468,0
DA:469,0
DA:468,0
DA:469,0
DA:468,0
DA:469,0
DA:468,0
DA:469,0
DA:468,0
DA:469,0
DA:481,0
DA:483,0
DA:481,3
DA:483,3
DA:481,3
DA:483,3
DA:481,3
DA:483,3
DA:481,6
DA:483,6
DA:481,6
DA:483,6
DA:481,1
DA:483,1
DA:481,1
DA:483,1
DA:481,1
DA:483,1
DA:494,0
DA:496,0
DA:494,0
DA:496,0
DA:494,0
DA:496,0
DA:494,3
DA:496,3
DA:494,3
DA:496,3
DA:504,6
DA:505,6
DA:504,2
DA:505,2
DA:504,14
DA:505,14
DA:504,14
DA:505,14
DA:513,0
DA:514,0
DA:567,4
DA:568,4
DA:571,4
DA:575,4
DA:576,4
end_of_record
SF:/usr/include/c++/9/bits/predefined_ops.h
FN:276,_ZN9__gnu_cxx5__ops10_Iter_predIZN6client9checkURLsIN9sharedLib4SongEEEbNSt6vectorIT_SaIS7_EE8iteratorESA_EUlRKS5_E_EC2ESD_
FNDA:3,_ZN9__gnu_cxx5__ops10_Iter_predIZN6client9checkURLsIN9sharedLib4SongEEEbNSt6vectorIT_SaIS7_EE8iteratorESA_EUlRKS5_E_EC2ESD_
FN:276,_ZN9__gnu_cxx5__ops10_Iter_predIZN6client9checkURLsIN9sharedLib8PlaylistEEEbNSt6vectorIT_SaIS7_EE8iteratorESA_EUlRKS5_E_EC2ESD_
FNDA:3,_ZN9__gnu_cxx5__ops10_Iter_predIZN6client9checkURLsIN9sharedLib8PlaylistEEEbNSt6vectorIT_SaIS7_EE8iteratorESA_EUlRKS5_E_EC2ESD_
FN:282,_ZN9__gnu_cxx5__ops10_Iter_predIZN6client9checkURLsIN9sharedLib4SongEEEbNSt6vectorIT_SaIS7_EE8iteratorESA_EUlRKS5_E_EclINS_17__normal_iteratorIPS5_S6_IS5_SaIS5_EEEEEEbS7_
FNDA:5,_ZN9__gnu_cxx5__ops10_Iter_predIZN6client9checkURLsIN9sharedLib4SongEEEbNSt6vectorIT_SaIS7_EE8iteratorESA_EUlRKS5_E_EclINS_17__normal_iteratorIPS5_S6_IS5_SaIS5_EEEEEEbS7_
FN:282,_ZN9__gnu_cxx5__ops10_Iter_predIZN6client9checkURLsIN9sharedLib8PlaylistEEEbNSt6vectorIT_SaIS7_EE8iteratorESA_EUlRKS5_E_EclINS_17__normal_iteratorIPS5_S6_IS5_SaIS5_EEEEEEbS7_
FNDA:5,_ZN9__gnu_cxx5__ops10_Iter_predIZN6client9checkURLsIN9sharedLib8PlaylistEEEbNSt6vectorIT_SaIS7_EE8iteratorESA_EUlRKS5_E_EclINS_17__normal_iteratorIPS5_S6_IS5_SaIS5_EEEEEEbS7_
FN:288,_ZN9__gnu_cxx5__ops11__pred_iterIZN6client9checkURLsIN9sharedLib4SongEEEbNSt6vectorIT_SaIS7_EE8iteratorESA_EUlRKS5_E_EENS0_10_Iter_predIS7_EES7_
FNDA:3,_ZN9__gnu_cxx5__ops11__pred_iterIZN6client9checkURLsIN9sharedLib4SongEEEbNSt6vectorIT_SaIS7_EE8iteratorESA_EUlRKS5_E_EENS0_10_Iter_predIS7_EES7_
FN:288,_ZN9__gnu_cxx5__ops11__pred_iterIZN6client9checkURLsIN9sharedLib8PlaylistEEEbNSt6vectorIT_SaIS7_EE8iteratorESA_EUlRKS5_E_EENS0_10_Iter_predIS7_EES7_
FNDA:3,_ZN9__gnu_cxx5__ops11__pred_iterIZN6client9checkURLsIN9sharedLib8PlaylistEEEbNSt6vectorIT_SaIS7_EE8iteratorESA_EUlRKS5_E_EENS0_10_Iter_predIS7_EES7_
DA:276,3
DA:277,3
DA:278,3
DA:276,3
DA:277,3
DA:278,3
DA:282,5
DA:283,5
DA:282,5
DA:283,5
DA:288,3
DA:289,3
DA:288,3
DA:289,3
end_of_record
SF:/usr/local/include/gmock/gmock-matchers.h
FN:305,_ZN7testing25StringMatchResultListenerC2Ev
FNDA:0,_ZN7testing25StringMatchResultListenerC2Ev
FN:308,_ZNK7testing25StringMatchResultListener3strB5cxx11Ev
FNDA:0,_ZNK7testing25StringMatchResultListener3strB5cxx11Ev
FN:561,_ZN7testing8internal15PrintIfNotEmptyERKNSt7__cxx1112basic_stringIcSt11char_traitsIcESaIcEEEPSo
FNDA:0,_ZN7testing8internal15PrintIfNotEmptyERKNSt7__cxx1112basic_stringIcSt11char_traitsIcESaIcEEEPSo
FN:660,_ZN7testing8internal11TuplePrefixILm0EE7MatchesISt5tupleIJEES5_EEbRKT_RKT0_
FNDA:3,_ZN7testing8internal11TuplePrefixILm0EE7MatchesISt5tupleIJEES5_EEbRKT_RKT0_
FN:666,_ZN7testing8internal11TuplePrefixILm0EE22ExplainMatchFailuresToISt5tupleIJEES5_EEvRKT_RKT0_PSo
FNDA:0,_ZN7testing8internal11TuplePrefixILm0EE22ExplainMatchFailuresToISt5tupleIJEES5_EEvRKT_RKT0_PSo
FN:677,_ZN7testing8internal12TupleMatchesISt5tupleIJEES3_EEbRKT_RKT0_
FNDA:3,_ZN7testing8internal12TupleMatchesISt5tupleIJEES3_EEbRKT_RKT0_
FN:691,_ZN7testing8internal26ExplainMatchFailureTupleToISt5tupleIJEES3_EEvRKT_RKT0_PSo
FNDA:0,_ZN7testing8internal26ExplainMatchFailureTupleToISt5tupleIJEES3_EEvRKT_RKT0_PSo
FN:746,_ZNK7testing8internal15AnythingMatcher15MatchAndExplainISt5tupleIJEEEEbRKT_PSo
FNDA:3,_ZNK7testing8internal15AnythingMatcher15MatchAndExplainISt5tupleIJEEEEbRKT_PSo
FN:749,_ZNK7testing8internal15AnythingMatcher10DescribeToEPSo
FNDA:0,_ZNK7testing8internal15AnythingMatcher10DescribeToEPSo
FN:750,_ZNK7testing8internal15AnythingMatcher18DescribeNegationToEPSo
FNDA:0,_ZNK7testing8internal15AnythingMatcher18DescribeNegationToEPSo
FN:4228,_ZN7testing1AIRKSt5tupleIJEEEENS_7MatcherIT_EEv
FNDA:3,_ZN7testing1AIRKSt5tupleIJEEEENS_7MatcherIT_EEv
DA:305,0
DA:308,0
DA:561,0
DA:563,0
DA:564,0
DA:566,0
DA:660,3
DA:662,3
DA:666,0
DA:668,0
DA:677,3
DA:684,3
DA:685,3
DA:691,0
DA:693,0
DA:695,0
DA:746,3
DA:747,3
DA:749,0
DA:750,0
DA:754,0
DA:755,0
DA:4228,3
DA:4229,3
end_of_record
SF:/usr/local/include/gtest/gtest-printers.h
FN:334,_ZN7testing8internal19FormatForComparisonIbbE6FormatB5cxx11ERKb
FNDA:0,_ZN7testing8internal19FormatForComparisonIbbE6FormatB5cxx11ERKb
FN:334,_ZN7testing8internal19FormatForComparisonINSt7__cxx1112basic_stringIcSt11char_traitsIcESaIcEEEA5_cE6FormatERKS7_
FNDA:0,_ZN7testing8internal19FormatForComparisonINSt7__cxx1112basic_stringIcSt11char_traitsIcESaIcEEEA5_cE6FormatERKS7_
FN:334,_ZN7testing8internal19FormatForComparisonINSt7__cxx1112basic_stringIcSt11char_traitsIcESaIcEEEA8_cE6FormatERKS7_
FNDA:0,_ZN7testing8internal19FormatForComparisonINSt7__cxx1112basic_stringIcSt11char_traitsIcESaIcEEEA8_cE6FormatERKS7_
FN:343,_ZN7testing8internal19FormatForComparisonIA5_cNSt7__cxx1112basic_stringIcSt11char_traitsIcESaIcEEEE6FormatEPKc
FNDA:0,_ZN7testing8internal19FormatForComparisonIA5_cNSt7__cxx1112basic_stringIcSt11char_traitsIcESaIcEEEE6FormatEPKc
FN:343,_ZN7testing8internal19FormatForComparisonIA8_cNSt7__cxx1112basic_stringIcSt11char_traitsIcESaIcEEEE6FormatEPKc
FNDA:0,_ZN7testing8internal19FormatForComparisonIA8_cNSt7__cxx1112basic_stringIcSt11char_traitsIcESaIcEEEE6FormatEPKc
FN:388,_ZN7testing8internal19FormatForComparisonIPKcNSt7__cxx1112basic_stringIcSt11char_traitsIcESaIcEEEE6FormatES3_
FNDA:0,_ZN7testing8internal19FormatForComparisonIPKcNSt7__cxx1112basic_stringIcSt11char_traitsIcESaIcEEEE6FormatES3_
FN:414,_ZN7testing8internal33FormatForComparisonFailureMessageIbbEENSt7__cxx1112basic_stringIcSt11char_traitsIcESaIcEEERKT_RKT0_
FNDA:0,_ZN7testing8internal33FormatForComparisonFailureMessageIbbEENSt7__cxx1112basic_stringIcSt11char_traitsIcESaIcEEERKT_RKT0_
FN:414,_ZN7testing8internal33FormatForComparisonFailureMessageINSt7__cxx1112basic_stringIcSt11char_traitsIcESaIcEEEA5_cEES7_RKT_RKT0_
FNDA:0,_ZN7testing8internal33FormatForComparisonFailureMessageINSt7__cxx1112basic_stringIcSt11char_traitsIcESaIcEEEA5_cEES7_RKT_RKT0_
FN:414,_ZN7testing8internal33FormatForComparisonFailureMessageIA5_cNSt7__cxx1112basic_stringIcSt11char_traitsIcESaIcEEEEES8_RKT_RKT0_
FNDA:0,_ZN7testing8internal33FormatForComparisonFailureMessageIA5_cNSt7__cxx1112basic_stringIcSt11char_traitsIcESaIcEEEEES8_RKT_RKT0_
FN:414,_ZN7testing8internal33FormatForComparisonFailureMessageINSt7__cxx1112basic_stringIcSt11char_traitsIcESaIcEEEA8_cEES7_RKT_RKT0_
FNDA:0,_ZN7testing8internal33FormatForComparisonFailureMessageINSt7__cxx1112basic_stringIcSt11char_traitsIcESaIcEEEA8_cEES7_RKT_RKT0_
FN:414,_ZN7testing8internal33FormatForComparisonFailureMessageIA8_cNSt7__cxx1112basic_stringIcSt11char_traitsIcESaIcEEEEES8_RKT_RKT0_
FNDA:0,_ZN7testing8internal33FormatForComparisonFailureMessageIA8_cNSt7__cxx1112basic_stringIcSt11char_traitsIcESaIcEEEEES8_RKT_RKT0_
FN:460,_ZN7testing8internal7PrintToEbPSo
FNDA:0,_ZN7testing8internal7PrintToEbPSo
FN:556,_ZN7testing8internal7PrintToERKNSt7__cxx1112basic_stringIcSt11char_traitsIcESaIcEEEPSo
FNDA:0,_ZN7testing8internal7PrintToERKNSt7__cxx1112basic_stringIcSt11char_traitsIcESaIcEEEPSo
FN:648,_ZN7testing8internal12PrintTupleToISt5tupleIJEEEEvRKT_St17integral_constantImLm0EEPSo
FNDA:1,_ZN7testing8internal12PrintTupleToISt5tupleIJEEEEvRKT_St17integral_constantImLm0EEPSo
FN:665,_ZN7testing8internal7PrintToIJEEEvRKSt5tupleIJDpT_EEPSo
FNDA:1,_ZN7testing8internal7PrintToIJEEEvRKSt5tupleIJDpT_EEPSo
FN:695,_ZN7testing8internal16UniversalPrinterISt5tupleIJEEE5PrintERKS3_PSo
FNDA:1,_ZN7testing8internal16UniversalPrinterISt5tupleIJEEE5PrintERKS3_PSo
FN:695,_ZN7testing8internal16UniversalPrinterIbE5PrintERKbPSo
FNDA:0,_ZN7testing8internal16UniversalPrinterIbE5PrintERKbPSo
FN:695,_ZN7testing8internal16UniversalPrinterINSt7__cxx1112basic_stringIcSt11char_traitsIcESaIcEEEE5PrintERKS7_PSo
FNDA:0,_ZN7testing8internal16UniversalPrinterINSt7__cxx1112basic_stringIcSt11char_traitsIcESaIcEEEE5PrintERKS7_PSo
FN:885,_ZN7testing8internal21UniversalTersePrinterIbE5PrintERKbPSo
FNDA:0,_ZN7testing8internal21UniversalTersePrinterIbE5PrintERKbPSo
FN:885,_ZN7testing8internal21UniversalTersePrinterINSt7__cxx1112basic_stringIcSt11char_traitsIcESaIcEEEE5PrintERKS7_PSo
FNDA:0,_ZN7testing8internal21UniversalTersePrinterINSt7__cxx1112basic_stringIcSt11char_traitsIcESaIcEEEE5PrintERKS7_PSo
FN:906,_ZN7testing8internal21UniversalTersePrinterIPKcE5PrintES3_PSo
FNDA:0,_ZN7testing8internal21UniversalTersePrinterIPKcE5PrintES3_PSo
FN:997,_ZN7testing8internal14UniversalPrintISt5tupleIJEEEEvRKT_PSo
FNDA:1,_ZN7testing8internal14UniversalPrintISt5tupleIJEEEEvRKT_PSo
FN:997,_ZN7testing8internal14UniversalPrintIbEEvRKT_PSo
FNDA:0,_ZN7testing8internal14UniversalPrintIbEEvRKT_PSo
FN:997,_ZN7testing8internal14UniversalPrintINSt7__cxx1112basic_stringIcSt11char_traitsIcESaIcEEEEEvRKT_PSo
FNDA:0,_ZN7testing8internal14UniversalPrintINSt7__cxx1112basic_stringIcSt11char_traitsIcESaIcEEEEEvRKT_PSo
FN:1037,_ZN7testing13PrintToStringIbEENSt7__cxx1112basic_stringIcSt11char_traitsIcESaIcEEERKT_
FNDA:0,_ZN7testing13PrintToStringIbEENSt7__cxx1112basic_stringIcSt11char_traitsIcESaIcEEERKT_
FN:1037,_ZN7testing13PrintToStringIPKcEENSt7__cxx1112basic_stringIcSt11char_traitsIcESaIcEEERKT_
FNDA:0,_ZN7testing13PrintToStringIPKcEENSt7__cxx1112basic_stringIcSt11char_traitsIcESaIcEEERKT_
FN:1037,_ZN7testing13PrintToStringINSt7__cxx1112basic_stringIcSt11char_traitsIcESaIcEEEEES6_RKT_
FNDA:0,_ZN7testing13PrintToStringINSt7__cxx1112basic_stringIcSt11char_traitsIcESaIcEEEEES6_RKT_
DA:334,0
DA:335,0
DA:334,0
DA:335,0
DA:334,0
DA:335,0
DA:343,0
DA:344,0
DA:343,0
DA:344,0
DA:388,0
DA:414,0
DA:416,0
DA:414,0
DA:416,0
DA:414,0
DA:416,0
DA:414,0
DA:416,0
DA:414,0
DA:416,0
DA:460,0
DA:461,0
DA:462,0
DA:556,0
DA:557,0
DA:558,0
DA:648,1
DA:649,1
DA:665,1
DA:666,1
DA:667,1
DA:668,1
DA:669,1
DA:695,1
DA:704,1
DA:705,1
DA:695,0
DA:704,0
DA:705,0
DA:695,0
DA:704,0
DA:705,0
DA:885,0
DA:886,0
DA:887,0
DA:885,0
DA:886,0
DA:887,0
DA:906,0
DA:907,0
DA:908,0
DA:910,0
DA:912,0
DA:997,1
DA:1001,1
DA:1002,1
DA:997,0
DA:1001,0
DA:1002,0
DA:997,0
DA:1001,0
DA:1002,0
DA:1037,0
DA:1038,0
DA:1039,0
DA:1040,0
DA:1037,0
DA:1038,0
DA:1039,0
DA:1040,0
DA:1037,0
DA:1038,0
DA:1039,0
DA:1040,0
end_of_record
SF:/usr/include/c++/9/ext/new_allocator.h
FN:80,_ZN9__gnu_cxx13new_allocatorIcEC2Ev
FNDA:0,_ZN9__gnu_cxx13new_allocatorIcEC2Ev
FN:80,_ZN9__gnu_cxx13new_allocatorISt13_Rb_tree_nodeIN7testing11ExpectationEEEC2Ev
FNDA:3,_ZN9__gnu_cxx13new_allocatorISt13_Rb_tree_nodeIN7testing11ExpectationEEEC2Ev
FN:80,_ZN9__gnu_cxx13new_allocatorIN9sharedLib8PlaylistEEC2Ev
FNDA:0,_ZN9__gnu_cxx13new_allocatorIN9sharedLib8PlaylistEEC2Ev
FN:80,_ZN9__gnu_cxx13new_allocatorIN9sharedLib4SongEEC2Ev
FNDA:0,_ZN9__gnu_cxx13new_allocatorIN9sharedLib4SongEEC2Ev
FN:80,_ZN9__gnu_cxx13new_allocatorIN9sharedLib8PlatformEEC2Ev
FNDA:0,_ZN9__gnu_cxx13new_allocatorIN9sharedLib8PlatformEEC2Ev
FN:80,_ZN9__gnu_cxx13new_allocatorIPKvEC2Ev
FNDA:11,_ZN9__gnu_cxx13new_allocatorIPKvEC2Ev
FN:83,_ZN9__gnu_cxx13new_allocatorIcEC2ERKS1_
FNDA:0,_ZN9__gnu_cxx13new_allocatorIcEC2ERKS1_
FN:89,_ZN9__gnu_cxx13new_allocatorIPKvED2Ev
FNDA:11,_ZN9__gnu_cxx13new_allocatorIPKvED2Ev
FN:89,_ZN9__gnu_cxx13new_allocatorIcED2Ev
FNDA:0,_ZN9__gnu_cxx13new_allocatorIcED2Ev
FN:89,_ZN9__gnu_cxx13new_allocatorISt13_Rb_tree_nodeIN7testing11ExpectationEEED2Ev
FNDA:3,_ZN9__gnu_cxx13new_allocatorISt13_Rb_tree_nodeIN7testing11ExpectationEEED2Ev
FN:89,_ZN9__gnu_cxx13new_allocatorIN9sharedLib8PlaylistEED2Ev
FNDA:0,_ZN9__gnu_cxx13new_allocatorIN9sharedLib8PlaylistEED2Ev
FN:89,_ZN9__gnu_cxx13new_allocatorIN9sharedLib4SongEED2Ev
FNDA:0,_ZN9__gnu_cxx13new_allocatorIN9sharedLib4SongEED2Ev
FN:89,_ZN9__gnu_cxx13new_allocatorIN9sharedLib8PlatformEED2Ev
FNDA:0,_ZN9__gnu_cxx13new_allocatorIN9sharedLib8PlatformEED2Ev
FN:89,_ZN9__gnu_cxx13new_allocatorIN9sharedLib7MessageEED2Ev
FNDA:0,_ZN9__gnu_cxx13new_allocatorIN9sharedLib7MessageEED2Ev
FN:102,_ZN9__gnu_cxx13new_allocatorIN9sharedLib4SongEE8allocateEmPKv
FNDA:0,_ZN9__gnu_cxx13new_allocatorIN9sharedLib4SongEE8allocateEmPKv
FN:102,_ZN9__gnu_cxx13new_allocatorIN9sharedLib8PlaylistEE8allocateEmPKv
FNDA:0,_ZN9__gnu_cxx13new_allocatorIN9sharedLib8PlaylistEE8allocateEmPKv
FN:102,_ZN9__gnu_cxx13new_allocatorIN9sharedLib8PlatformEE8allocateEmPKv
FNDA:0,_ZN9__gnu_cxx13new_allocatorIN9sharedLib8PlatformEE8allocateEmPKv
FN:102,_ZN9__gnu_cxx13new_allocatorISt10shared_ptrIN7testing8internal15ExpectationBaseEEE8allocateEmPKv
FNDA:3,_ZN9__gnu_cxx13new_allocatorISt10shared_ptrIN7testing8internal15ExpectationBaseEEE8allocateEmPKv
FN:119,_ZN9__gnu_cxx13new_allocatorISt13_Rb_tree_nodeIN7testing11ExpectationEEE10deallocateEPS4_m
FNDA:0,_ZN9__gnu_cxx13new_allocatorISt13_Rb_tree_nodeIN7testing11ExpectationEEE10deallocateEPS4_m
FN:119,_ZN9__gnu_cxx13new_allocatorIPKvE10deallocateEPS2_m
FNDA:0,_ZN9__gnu_cxx13new_allocatorIPKvE10deallocateEPS2_m
FN:119,_ZN9__gnu_cxx13new_allocatorIN9sharedLib8PlaylistEE10deallocateEPS2_m
FNDA:0,_ZN9__gnu_cxx13new_allocatorIN9sharedLib8PlaylistEE10deallocateEPS2_m
FN:119,_ZN9__gnu_cxx13new_allocatorIN9sharedLib4SongEE10deallocateEPS2_m
FNDA:0,_ZN9__gnu_cxx13new_allocatorIN9sharedLib4SongEE10deallocateEPS2_m
FN:119,_ZN9__gnu_cxx13new_allocatorIN9sharedLib8PlatformEE10deallocateEPS2_m
FNDA:0,_ZN9__gnu_cxx13new_allocatorIN9sharedLib8PlatformEE10deallocateEPS2_m
FN:119,_ZN9__gnu_cxx13new_allocatorIN9sharedLib7MessageEE10deallocateEPS2_m
FNDA:0,_ZN9__gnu_cxx13new_allocatorIN9sharedLib7MessageEE10deallocateEPS2_m
FN:119,_ZN9__gnu_cxx13new_allocatorISt10shared_ptrIN7testing8internal15ExpectationBaseEEE10deallocateEPS5_m
FNDA:3,_ZN9__gnu_cxx13new_allocatorISt10shared_ptrIN7testing8internal15ExpectationBaseEEE10deallocateEPS5_m
FN:132,_ZNK9__gnu_cxx13new_allocatorISt10shared_ptrIN7testing8internal15ExpectationBaseEEE8max_sizeEv
FNDA:9,_ZNK9__gnu_cxx13new_allocatorISt10shared_ptrIN7testing8internal15ExpectationBaseEEE8max_sizeEv
FN:132,_ZNK9__gnu_cxx13new_allocatorIN9sharedLib8PlatformEE8max_sizeEv
FNDA:0,_ZNK9__gnu_cxx13new_allocatorIN9sharedLib8PlatformEE8max_sizeEv
FN:132,_ZNK9__gnu_cxx13new_allocatorIN9sharedLib4SongEE8max_sizeEv
FNDA:0,_ZNK9__gnu_cxx13new_allocatorIN9sharedLib4SongEE8max_sizeEv
FN:132,_ZNK9__gnu_cxx13new_allocatorIN9sharedLib8PlaylistEE8max_sizeEv
FNDA:0,_ZNK9__gnu_cxx13new_allocatorIN9sharedLib8PlaylistEE8max_sizeEv
FN:144,_ZN9__gnu_cxx13new_allocatorIN9sharedLib8PlaylistEE9constructIS2_JS2_EEEvPT_DpOT0_
FNDA:3,_ZN9__gnu_cxx13new_allocatorIN9sharedLib8PlaylistEE9constructIS2_JS2_EEEvPT_DpOT0_
FN:144,_ZN9__gnu_cxx13new_allocatorIN9sharedLib4SongEE9constructIS2_JS2_EEEvPT_DpOT0_
FNDA:3,_ZN9__gnu_cxx13new_allocatorIN9sharedLib4SongEE9constructIS2_JS2_EEEvPT_DpOT0_
FN:144,_ZN9__gnu_cxx13new_allocatorIN9sharedLib8PlaylistEE9constructIS2_JNS1_3URLERNS1_8PlatformEEEEvPT_DpOT0_
FNDA:1,_ZN9__gnu_cxx13new_allocatorIN9sharedLib8PlaylistEE9constructIS2_JNS1_3URLERNS1_8PlatformEEEEvPT_DpOT0_
FN:144,_ZN9__gnu_cxx13new_allocatorIN9sharedLib4SongEE9constructIS2_JNS1_3URLERNS1_8PlatformEEEEvPT_DpOT0_
FNDA:1,_ZN9__gnu_cxx13new_allocatorIN9sharedLib4SongEE9constructIS2_JNS1_3URLERNS1_8PlatformEEEEvPT_DpOT0_
FN:144,_ZN9__gnu_cxx13new_allocatorIN9sharedLib8PlatformEE9constructIS2_JS2_EEEvPT_DpOT0_
FNDA:1,_ZN9__gnu_cxx13new_allocatorIN9sharedLib8PlatformEE9constructIS2_JS2_EEEvPT_DpOT0_
FN:144,_ZN9__gnu_cxx13new_allocatorIN9sharedLib8PlaylistEE9constructIS2_JNS1_3URLENS1_8PlatformEEEEvPT_DpOT0_
FNDA:6,_ZN9__gnu_cxx13new_allocatorIN9sharedLib8PlaylistEE9constructIS2_JNS1_3URLENS1_8PlatformEEEEvPT_DpOT0_
FN:144,_ZN9__gnu_cxx13new_allocatorIN9sharedLib4SongEE9constructIS2_JNS1_3URLENS1_8PlatformEEEEvPT_DpOT0_
FNDA:6,_ZN9__gnu_cxx13new_allocatorIN9sharedLib4SongEE9constructIS2_JNS1_3URLENS1_8PlatformEEEEvPT_DpOT0_
FN:144,_ZN9__gnu_cxx13new_allocatorISt10shared_ptrIN7testing8internal15ExpectationBaseEEE9constructIS5_JS5_EEEvPT_DpOT0_
FNDA:0,_ZN9__gnu_cxx13new_allocatorISt10shared_ptrIN7testing8internal15ExpectationBaseEEE9constructIS5_JS5_EEEvPT_DpOT0_
FN:144,_ZN9__gnu_cxx13new_allocatorISt10shared_ptrIN7testing8internal15ExpectationBaseEEE9constructIS5_JRKS5_EEEvPT_DpOT0_
FNDA:3,_ZN9__gnu_cxx13new_allocatorISt10shared_ptrIN7testing8internal15ExpectationBaseEEE9constructIS5_JRKS5_EEEvPT_DpOT0_
FN:150,_ZN9__gnu_cxx13new_allocatorISt13_Rb_tree_nodeIN7testing11ExpectationEEE7destroyIS3_EEvPT_
FNDA:0,_ZN9__gnu_cxx13new_allocatorISt13_Rb_tree_nodeIN7testing11ExpectationEEE7destroyIS3_EEvPT_
FN:150,_ZN9__gnu_cxx13new_allocatorISt10shared_ptrIN7testing8internal15ExpectationBaseEEE7destroyIS5_EEvPT_
FNDA:0,_ZN9__gnu_cxx13new_allocatorISt10shared_ptrIN7testing8internal15ExpectationBaseEEE7destroyIS5_EEvPT_
FN:150,_ZN9__gnu_cxx13new_allocatorIN9sharedLib8PlaylistEE7destroyIS2_EEvPT_
FNDA:3,_ZN9__gnu_cxx13new_allocatorIN9sharedLib8PlaylistEE7destroyIS2_EEvPT_
FN:150,_ZN9__gnu_cxx13new_allocatorIN9sharedLib4SongEE7destroyIS2_EEvPT_
FNDA:3,_ZN9__gnu_cxx13new_allocatorIN9sharedLib4SongEE7destroyIS2_EEvPT_
FN:150,_ZN9__gnu_cxx13new_allocatorIN9sharedLib8PlatformEE7destroyIS2_EEvPT_
FNDA:0,_ZN9__gnu_cxx13new_allocatorIN9sharedLib8PlatformEE7destroyIS2_EEvPT_
DA:80,11
DA:80,0
DA:80,0
DA:80,0
DA:80,3
DA:80,0
DA:83,0
DA:89,11
DA:89,0
DA:89,0
DA:89,0
DA:89,0
DA:89,3
DA:89,0
DA:102,3
DA:104,3
DA:105,0
DA:114,3
DA:102,0
DA:104,0
DA:105,0
DA:114,0
DA:102,0
DA:104,0
DA:105,0
DA:114,0
DA:102,0
DA:104,0
DA:105,0
DA:114,0
DA:119,3
DA:128,3
DA:129,3
DA:119,0
DA:128,0
DA:129,0
DA:119,0
DA:128,0
DA:129,0
DA:119,0
DA:128,0
DA:129,0
DA:119,0
DA:128,0
DA:129,0
DA:119,0
DA:128,0
DA:129,0
DA:119,0
DA:128,0
DA:129,0
DA:132,9
DA:135,9
DA:132,0
DA:135,0
DA:132,0
DA:135,0
DA:132,0
DA:135,0
DA:144,0
DA:146,0
DA:144,3
DA:146,3
DA:144,3
DA:146,3
DA:144,3
DA:146,3
DA:144,6
DA:146,6
DA:144,6
DA:146,6
DA:144,1
DA:146,1
DA:144,1
DA:146,1
DA:144,1
DA:146,1
DA:150,0
DA:152,0
DA:150,0
DA:152,0
DA:150,0
DA:152,0
DA:150,3
DA:152,3
DA:150,3
DA:152,3
end_of_record
SF:/usr/local/include/gmock/gmock-spec-builders.h
FN:267,_ZNK7testing8internal21UntypedOnCallSpecBase4fileEv
FNDA:0,_ZNK7testing8internal21UntypedOnCallSpecBase4fileEv
FN:268,_ZNK7testing8internal21UntypedOnCallSpecBase4lineEv
FNDA:0,_ZNK7testing8internal21UntypedOnCallSpecBase4lineEv
FN:281,_ZNK7testing8internal21UntypedOnCallSpecBase18AssertSpecPropertyEbRKNSt7__cxx1112basic_stringIcSt11char_traitsIcESaIcEEE
FNDA:0,_ZNK7testing8internal21UntypedOnCallSpecBase18AssertSpecPropertyEbRKNSt7__cxx1112basic_stringIcSt11char_traitsIcESaIcEEE
FN:344,_ZNK7testing8internal10OnCallSpecIFvvEE7MatchesERKSt5tupleIJEE
FNDA:0,_ZNK7testing8internal10OnCallSpecIFvvEE7MatchesERKSt5tupleIJEE
FN:349,_ZNK7testing8internal10OnCallSpecIFvvEE9GetActionEv
FNDA:0,_ZNK7testing8internal10OnCallSpecIFvvEE9GetActionEv
FN:562,_ZNK7testing11Expectation16expectation_baseEv
FNDA:0,_ZNK7testing11Expectation16expectation_baseEv
FN:592,_ZN7testing14ExpectationSetC2Ev
FNDA:3,_ZN7testing14ExpectationSetC2Ev
FN:628,_ZNK7testing14ExpectationSet5beginEv
FNDA:6,_ZNK7testing14ExpectationSet5beginEv
FN:629,_ZNK7testing14ExpectationSet3endEv
FNDA:6,_ZNK7testing14ExpectationSet3endEv
FN:715,_ZNK7testing8internal15ExpectationBase4fileEv
FNDA:0,_ZNK7testing8internal15ExpectationBase4fileEv
FN:716,_ZNK7testing8internal15ExpectationBase4lineEv
FNDA:0,_ZNK7testing8internal15ExpectationBase4lineEv
FN:717,_ZNK7testing8internal15ExpectationBase11source_textEv
FNDA:3,_ZNK7testing8internal15ExpectationBase11source_textEv
FN:719,_ZNK7testing8internal15ExpectationBase11cardinalityEv
FNDA:18,_ZNK7testing8internal15ExpectationBase11cardinalityEv
FN:722,_ZNK7testing8internal15ExpectationBase18DescribeLocationToEPSo
FNDA:0,_ZNK7testing8internal15ExpectationBase18DescribeLocationToEPSo
FN:791,_ZNK7testing8internal15ExpectationBase10is_retiredEv
FNDA:6,_ZNK7testing8internal15ExpectationBase10is_retiredEv
FN:798,_ZN7testing8internal15ExpectationBase6RetireEv
FNDA:0,_ZN7testing8internal15ExpectationBase6RetireEv
FN:812,_ZNK7testing8internal15ExpectationBase11IsSaturatedEv
FNDA:6,_ZNK7testing8internal15ExpectationBase11IsSaturatedEv
FN:835,_ZNK7testing8internal15ExpectationBase10call_countEv
FNDA:3,_ZNK7testing8internal15ExpectationBase10call_countEv
FN:842,_ZN7testing8internal15ExpectationBase18IncrementCallCountEv
FNDA:3,_ZN7testing8internal15ExpectationBase18IncrementCallCountEv
FN:901,_ZN7testing8internal16TypedExpectationIFvvEEC2EPNS0_14FunctionMockerIS2_EEPKciRKNSt7__cxx1112basic_stringIcSt11char_traitsIcESaIcEEERKSt5tupleIJEE
FNDA:3,_ZN7testing8internal16TypedExpectationIFvvEEC2EPNS0_14FunctionMockerIS2_EEPKciRKNSt7__cxx1112basic_stringIcSt11char_traitsIcESaIcEEERKSt5tupleIJEE
FN:913,_ZN7testing8internal16TypedExpectationIFvvEED2Ev
FNDA:3,_ZN7testing8internal16TypedExpectationIFvvEED2Ev
FN:913,_ZN7testing8internal16TypedExpectationIFvvEED0Ev
FNDA:3,_ZN7testing8internal16TypedExpectationIFvvEED0Ev
FN:942,_ZN7testing8internal16TypedExpectationIFvvEE5TimesERKNS_11CardinalityE
FNDA:3,_ZN7testing8internal16TypedExpectationIFvvEE5TimesERKNS_11CardinalityE
FN:948,_ZN7testing8internal16TypedExpectationIFvvEE5TimesEi
FNDA:3,_ZN7testing8internal16TypedExpectationIFvvEE5TimesEi
FN:1075,_ZNK7testing8internal16TypedExpectationIFvvEE15repeated_actionEv
FNDA:3,_ZNK7testing8internal16TypedExpectationIFvvEE15repeated_actionEv
FN:1079,_ZN7testing8internal16TypedExpectationIFvvEE27MaybeDescribeExtraMatcherToEPSo
FNDA:0,_ZN7testing8internal16TypedExpectationIFvvEE27MaybeDescribeExtraMatcherToEPSo
FN:1093,_ZN7testing8internal16TypedExpectationIFvvEE9GetHandleEv
FNDA:0,_ZN7testing8internal16TypedExpectationIFvvEE9GetHandleEv
FN:1100,_ZNK7testing8internal16TypedExpectationIFvvEE7MatchesERKSt5tupleIJEE
FNDA:3,_ZNK7testing8internal16TypedExpectationIFvvEE7MatchesERKSt5tupleIJEE
FN:1108,_ZNK7testing8internal16TypedExpectationIFvvEE21ShouldHandleArgumentsERKSt5tupleIJEE
FNDA:3,_ZNK7testing8internal16TypedExpectationIFvvEE21ShouldHandleArgumentsERKSt5tupleIJEE
FN:1122,_ZNK7testing8internal16TypedExpectationIFvvEE20ExplainMatchResultToERKSt5tupleIJEEPSo
FNDA:0,_ZNK7testing8internal16TypedExpectationIFvvEE20ExplainMatchResultToERKSt5tupleIJEEPSo
FN:1167,_ZNK7testing8internal16TypedExpectationIFvvEE16GetCurrentActionEPKNS0_14FunctionMockerIS2_EERKSt5tupleIJEE
FNDA:3,_ZNK7testing8internal16TypedExpectationIFvvEE16GetCurrentActionEPKNS0_14FunctionMockerIS2_EERKSt5tupleIJEE
FN:1204,_ZN7testing8internal16TypedExpectationIFvvEE21GetActionForArgumentsEPKNS0_14FunctionMockerIS2_EERKSt5tupleIJEEPSoSC_
FNDA:3,_ZN7testing8internal16TypedExpectationIFvvEE21GetActionForArgumentsEPKNS0_14FunctionMockerIS2_EERKSt5tupleIJEEPSoSC_
FN:1266,_ZN7testing8internal8MockSpecIFvvEEC2EPNS0_14FunctionMockerIS2_EERKSt5tupleIJEE
FNDA:3,_ZN7testing8internal8MockSpecIFvvEEC2EPNS0_14FunctionMockerIS2_EERKSt5tupleIJEE
FN:1281,_ZN7testing8internal8MockSpecIFvvEE18InternalExpectedAtEPKciS5_S5_
FNDA:3,_ZN7testing8internal8MockSpecIFvvEE18InternalExpectedAtEPKciS5_S5_
FN:1293,_ZN7testing8internal8MockSpecIFvvEEclERKNS0_15WithoutMatchersEPv
FNDA:3,_ZN7testing8internal8MockSpecIFvvEEclERKNS0_15WithoutMatchersEPv
FN:1369,_ZN7testing8internal29UntypedActionResultHolderBaseD2Ev
FNDA:4,_ZN7testing8internal29UntypedActionResultHolderBaseD2Ev
FN:1369,_ZN7testing8internal29UntypedActionResultHolderBaseD0Ev
FNDA:0,_ZN7testing8internal29UntypedActionResultHolderBaseD0Ev
FN:1427,_ZN7testing8internal18ActionResultHolderIvE6UnwrapEv
FNDA:4,_ZN7testing8internal18ActionResultHolderIvE6UnwrapEv
FN:1429,_ZNK7testing8internal18ActionResultHolderIvE19PrintAsActionResultEPSo
FNDA:1,_ZNK7testing8internal18ActionResultHolderIvE19PrintAsActionResultEPSo
FN:1434,_ZN7testing8internal18ActionResultHolderIvE20PerformDefaultActionIFvvEEEPS2_PKNS0_14FunctionMockerIT_EEONS0_8FunctionIS7_E13ArgumentTupleERKNSt7__cxx1112basic_stringIcSt11char_traitsIcESaIcEEE
FNDA:4,_ZN7testing8internal18ActionResultHolderIvE20PerformDefaultActionIFvvEEEPS2_PKNS0_14FunctionMockerIT_EEONS0_8FunctionIS7_E13ArgumentTupleERKNSt7__cxx1112basic_stringIcSt11char_traitsIcESaIcEEE
FN:1445,_ZN7testing8internal18ActionResultHolderIvE13PerformActionIFvvEEEPS2_RKNS_6ActionIT_EEONS0_8FunctionIS7_E13ArgumentTupleE
FNDA:0,_ZN7testing8internal18ActionResultHolderIvE13PerformActionIFvvEEEPS2_RKNS_6ActionIT_EEONS0_8FunctionIS7_E13ArgumentTupleE
FN:1452,_ZN7testing8internal18ActionResultHolderIvEC2Ev
FNDA:4,_ZN7testing8internal18ActionResultHolderIvEC2Ev
FN:1468,_ZN7testing8internal14FunctionMockerIFvvEEC2Ev
FNDA:4,_ZN7testing8internal14FunctionMockerIFvvEEC2Ev
FN:1488,_ZN7testing8internal14FunctionMockerIFvvEED2Ev
FNDA:4,_ZN7testing8internal14FunctionMockerIFvvEED2Ev
FN:1488,_ZN7testing8internal14FunctionMockerIFvvEED0Ev
FNDA:0,_ZN7testing8internal14FunctionMockerIFvvEED0Ev
FN:1498,_ZNK7testing8internal14FunctionMockerIFvvEE14FindOnCallSpecERKSt5tupleIJEE
FNDA:5,_ZNK7testing8internal14FunctionMockerIFvvEE14FindOnCallSpecERKSt5tupleIJEE
FN:1518,_ZNK7testing8internal14FunctionMockerIFvvEE20PerformDefaultActionEOSt5tupleIJEERKNSt7__cxx1112basic_stringIcSt11char_traitsIcESaIcEEE
FNDA:4,_ZNK7testing8internal14FunctionMockerIFvvEE20PerformDefaultActionEOSt5tupleIJEERKNSt7__cxx1112basic_stringIcSt11char_traitsIcESaIcEEE
FN:1544,_ZNK7testing8internal14FunctionMockerIFvvEE27UntypedPerformDefaultActionEPvRKNSt7__cxx1112basic_stringIcSt11char_traitsIcESaIcEEE
FNDA:4,_ZNK7testing8internal14FunctionMockerIFvvEE27UntypedPerformDefaultActionEPvRKNSt7__cxx1112basic_stringIcSt11char_traitsIcESaIcEEE
FN:1556,_ZNK7testing8internal14FunctionMockerIFvvEE20UntypedPerformActionEPKvPv
FNDA:0,_ZNK7testing8internal14FunctionMockerIFvvEE20UntypedPerformActionEPKvPv
FN:1567,_ZN7testing8internal14FunctionMockerIFvvEE25ClearDefaultActionsLockedEv
FNDA:4,_ZN7testing8internal14FunctionMockerIFvvEE25ClearDefaultActionsLockedEv
FN:1596,_ZN7testing8internal14FunctionMockerIFvvEE6InvokeEv
FNDA:4,_ZN7testing8internal14FunctionMockerIFvvEE6InvokeEv
FN:1603,_ZN7testing8internal14FunctionMockerIFvvEE4WithEv
FNDA:3,_ZN7testing8internal14FunctionMockerIFvvEE4WithEv
FN:1625,_ZN7testing8internal14FunctionMockerIFvvEE17AddNewExpectationEPKciRKNSt7__cxx1112basic_stringIcSt11char_traitsIcESaIcEEERKSt5tupleIJEE
FNDA:3,_ZN7testing8internal14FunctionMockerIFvvEE17AddNewExpectationEPKciRKNSt7__cxx1112basic_stringIcSt11char_traitsIcESaIcEEERKSt5tupleIJEE
FN:1654,_ZNK7testing8internal14FunctionMockerIFvvEE23DescribeDefaultActionToERKSt5tupleIJEEPSo
FNDA:1,_ZNK7testing8internal14FunctionMockerIFvvEE23DescribeDefaultActionToERKSt5tupleIJEEPSo
FN:1670,_ZNK7testing8internal14FunctionMockerIFvvEE32UntypedDescribeUninterestingCallEPKvPSo
FNDA:1,_ZNK7testing8internal14FunctionMockerIFvvEE32UntypedDescribeUninterestingCallEPKvPSo
FN:1697,_ZN7testing8internal14FunctionMockerIFvvEE30UntypedFindMatchingExpectationEPKvPS5_PbPSoS8_
FNDA:3,_ZN7testing8internal14FunctionMockerIFvvEE30UntypedFindMatchingExpectationEPKvPS5_PbPSoS8_
FN:1722,_ZNK7testing8internal14FunctionMockerIFvvEE16UntypedPrintArgsEPKvPSo
FNDA:0,_ZNK7testing8internal14FunctionMockerIFvvEE16UntypedPrintArgsEPKvPSo
FN:1731,_ZNK7testing8internal14FunctionMockerIFvvEE29FindMatchingExpectationLockedERKSt5tupleIJEE
FNDA:3,_ZNK7testing8internal14FunctionMockerIFvvEE29FindMatchingExpectationLockedERKSt5tupleIJEE
FN:1750,_ZNK7testing8internal14FunctionMockerIFvvEE33FormatUnexpectedCallMessageLockedERKSt5tupleIJEEPSoS8_
FNDA:0,_ZNK7testing8internal14FunctionMockerIFvvEE33FormatUnexpectedCallMessageLockedERKSt5tupleIJEEPSoS8_
FN:1763,_ZNK7testing8internal14FunctionMockerIFvvEE28PrintTriedExpectationsLockedERKSt5tupleIJEEPSo
FNDA:0,_ZNK7testing8internal14FunctionMockerIFvvEE28PrintTriedExpectationsLockedERKSt5tupleIJEEPSo
DA:267,0
DA:268,0
DA:281,0
DA:283,0
DA:284,0
DA:344,0
DA:345,0
DA:349,0
DA:350,0
DA:353,0
DA:562,0
DA:563,0
DA:592,3
DA:628,6
DA:629,6
DA:715,0
DA:716,0
DA:717,3
DA:719,18
DA:722,0
DA:723,0
DA:724,0
DA:791,6
DA:793,6
DA:794,6
DA:798,0
DA:800,0
DA:801,0
DA:802,0
DA:812,6
DA:814,6
DA:815,6
DA:835,3
DA:837,3
DA:838,3
DA:842,3
DA:844,3
DA:845,3
DA:846,3
DA:901,3
DA:911,3
DA:913,3
DA:921,3
DA:913,3
DA:916,3
DA:917,3
DA:918,3
DA:919,0
DA:921,6
DA:942,3
DA:943,3
DA:944,3
DA:948,3
DA:949,3
DA:1075,3
DA:1079,0
DA:1080,0
DA:1081,0
DA:1082,0
DA:1083,0
DA:1085,0
DA:1093,0
DA:1100,3
DA:1102,3
DA:1103,3
DA:1108,3
DA:1110,3
DA:1116,3
DA:1117,3
DA:1122,0
DA:1126,0
DA:1128,0
DA:1130,0
DA:1131,0
DA:1132,0
DA:1133,0
DA:1135,0
DA:1136,0
DA:1137,0
DA:1138,0
DA:1139,0
DA:1141,0
DA:1142,0
DA:1144,0
DA:1147,0
DA:1148,0
DA:1149,0
DA:1150,0
DA:1151,0
DA:1152,0
DA:1153,0
DA:1154,0
DA:1156,0
DA:1162,0
DA:1164,0
DA:1167,3
DA:1170,3
DA:1171,3
DA:1172,3
DA:1176,3
DA:1177,3
DA:1181,0
DA:1182,0
DA:1184,0
DA:1186,0
DA:1187,0
DA:1188,0
DA:1192,3
DA:1193,0
DA:1194,3
DA:1204,3
DA:1209,3
DA:1210,3
DA:1212,0
DA:1213,0
DA:1214,0
DA:1215,0
DA:1217,0
DA:1220,3
DA:1221,3
DA:1223,3
DA:1224,0
DA:1228,3
DA:1229,3
DA:1266,3
DA:1268,3
DA:1281,3
DA:1283,6
DA:1285,3
DA:1286,3
DA:1287,6
DA:1293,3
DA:1294,3
DA:1369,0
DA:1369,4
DA:1427,4
DA:1429,1
DA:1434,4
DA:1438,4
DA:1439,4
DA:1445,0
DA:1447,0
DA:1448,0
DA:1452,4
DA:1468,4
DA:1488,0
DA:1493,0
DA:1488,4
DA:1489,4
DA:1490,4
DA:1491,4
DA:1492,4
DA:1493,8
DA:1498,5
DA:1500,5
DA:1502,5
DA:1503,0
DA:1504,0
DA:1505,0
DA:1508,5
DA:1518,4
DA:1520,4
DA:1522,4
DA:1523,0
DA:1525,8
DA:1530,4
DA:1531,0
DA:1536,4
DA:1544,4
DA:1547,4
DA:1548,4
DA:1549,4
DA:1556,0
DA:1560,0
DA:1561,0
DA:1562,0
DA:1567,4
DA:1569,4
DA:1578,8
DA:1579,4
DA:1581,4
DA:1582,4
DA:1583,8
DA:1584,4
DA:1585,0
DA:1590,4
DA:1591,4
DA:1596,4
DA:1598,8
DA:1600,8
DA:1603,3
DA:1604,3
DA:1625,3
DA:1629,3
DA:1630,3
DA:1631,3
DA:1632,3
DA:1635,3
DA:1638,3
DA:1639,3
DA:1640,0
DA:1643,6
DA:1654,1
DA:1656,1
DA:1658,1
DA:1659,1
DA:1663,0
DA:1665,1
DA:1670,1
DA:1673,1
DA:1675,1
DA:1676,1
DA:1677,1
DA:1678,1
DA:1679,1
DA:1697,3
DA:1701,3
DA:1703,6
DA:1704,3
DA:1705,3
DA:1706,0
DA:1707,0
DA:1713,3
DA:1714,3
DA:1715,3
DA:1716,3
DA:1717,3
DA:1718,3
DA:1722,0
DA:1724,0
DA:1726,0
DA:1727,0
DA:1731,3
DA:1734,3
DA:1737,3
DA:1739,3
DA:1741,3
DA:1742,3
DA:1743,3
DA:1746,0
DA:1750,0
DA:1755,0
DA:1756,0
DA:1757,0
DA:1758,0
DA:1759,0
DA:1763,0
DA:1767,0
DA:1768,0
DA:1769,0
DA:1772,0
DA:1773,0
DA:1775,0
DA:1776,0
DA:1777,0
DA:1778,0
DA:1779,0
DA:1781,0
DA:1782,0
DA:1783,0
DA:1785,0
end_of_record
SF:/usr/include/c++/9/bits/atomic_base.h
DA:551,0
end_of_record
SF:/usr/include/c++/9/ext/alloc_traits.h
FN:97,_ZN9__gnu_cxx14__alloc_traitsISaIcEcE17_S_select_on_copyERKS1_
FNDA:0,_ZN9__gnu_cxx14__alloc_traitsISaIcEcE17_S_select_on_copyERKS1_
FN:100,_ZN9__gnu_cxx14__alloc_traitsISaIPKvES2_E10_S_on_swapERS3_S5_
FNDA:4,_ZN9__gnu_cxx14__alloc_traitsISaIPKvES2_E10_S_on_swapERS3_S5_
DA:97,0
DA:98,0
DA:100,4
DA:101,4
end_of_record
SF:/usr/include/c++/9/bits/stl_construct.h
FN:74,_ZSt10_ConstructIN9sharedLib4SongEJS1_EEvPT_DpOT0_
FNDA:0,_ZSt10_ConstructIN9sharedLib4SongEJS1_EEvPT_DpOT0_
FN:74,_ZSt10_ConstructIN9sharedLib8PlaylistEJS1_EEvPT_DpOT0_
FNDA:0,_ZSt10_ConstructIN9sharedLib8PlaylistEJS1_EEvPT_DpOT0_
FN:74,_ZSt10_ConstructISt10shared_ptrIN7testing8internal15ExpectationBaseEEJS4_EEvPT_DpOT0_
FNDA:0,_ZSt10_ConstructISt10shared_ptrIN7testing8internal15ExpectationBaseEEJS4_EEvPT_DpOT0_
FN:97,_ZSt8_DestroyISt10shared_ptrIN7testing8internal15ExpectationBaseEEEvPT_
FNDA:3,_ZSt8_DestroyISt10shared_ptrIN7testing8internal15ExpectationBaseEEEvPT_
FN:97,_ZSt8_DestroyIN9sharedLib8PlaylistEEvPT_
FNDA:0,_ZSt8_DestroyIN9sharedLib8PlaylistEEvPT_
FN:97,_ZSt8_DestroyIN9sharedLib4SongEEvPT_
FNDA:0,_ZSt8_DestroyIN9sharedLib4SongEEvPT_
FN:97,_ZSt8_DestroyIN9sharedLib7MessageEEvPT_
FNDA:0,_ZSt8_DestroyIN9sharedLib7MessageEEvPT_
FN:105,_ZNSt12_Destroy_auxILb0EE9__destroyIPSt10shared_ptrIN7testing8internal15ExpectationBaseEEEEvT_S8_
FNDA:11,_ZNSt12_Destroy_auxILb0EE9__destroyIPSt10shared_ptrIN7testing8internal15ExpectationBaseEEEEvT_S8_
FN:105,_ZNSt12_Destroy_auxILb0EE9__destroyIPN9sharedLib7MessageEEEvT_S5_
FNDA:0,_ZNSt12_Destroy_auxILb0EE9__destroyIPN9sharedLib7MessageEEEvT_S5_
FN:105,_ZNSt12_Destroy_auxILb0EE9__destroyIPN9sharedLib4SongEEEvT_S5_
FNDA:0,_ZNSt12_Destroy_auxILb0EE9__destroyIPN9sharedLib4SongEEEvT_S5_
FN:105,_ZNSt12_Destroy_auxILb0EE9__destroyIPN9sharedLib8PlaylistEEEvT_S5_
FNDA:0,_ZNSt12_Destroy_auxILb0EE9__destroyIPN9sharedLib8PlaylistEEEvT_S5_
FN:117,_ZNSt12_Destroy_auxILb1EE9__destroyIPPKvEEvT_S5_
FNDA:11,_ZNSt12_Destroy_auxILb1EE9__destroyIPPKvEEvT_S5_
FN:117,_ZNSt12_Destroy_auxILb1EE9__destroyIPN9sharedLib8PlatformEEEvT_S5_
FNDA:0,_ZNSt12_Destroy_auxILb1EE9__destroyIPN9sharedLib8PlatformEEEvT_S5_
FN:127,_ZSt8_DestroyIPPKvEvT_S3_
FNDA:11,_ZSt8_DestroyIPPKvEvT_S3_
FN:127,_ZSt8_DestroyIPSt10shared_ptrIN7testing8internal15ExpectationBaseEEEvT_S6_
FNDA:11,_ZSt8_DestroyIPSt10shared_ptrIN7testing8internal15ExpectationBaseEEEvT_S6_
FN:127,_ZSt8_DestroyIPN9sharedLib7MessageEEvT_S3_
FNDA:0,_ZSt8_DestroyIPN9sharedLib7MessageEEvT_S3_
FN:127,_ZSt8_DestroyIPN9sharedLib8PlatformEEvT_S3_
FNDA:0,_ZSt8_DestroyIPN9sharedLib8PlatformEEvT_S3_
FN:127,_ZSt8_DestroyIPN9sharedLib4SongEEvT_S3_
FNDA:0,_ZSt8_DestroyIPN9sharedLib4SongEEvT_S3_
FN:127,_ZSt8_DestroyIPN9sharedLib8PlaylistEEvT_S3_
FNDA:0,_ZSt8_DestroyIPN9sharedLib8PlaylistEEvT_S3_
FN:203,_ZSt8_DestroyIPN9sharedLib8PlaylistES1_EvT_S3_RSaIT0_E
FNDA:0,_ZSt8_DestroyIPN9sharedLib8PlaylistES1_EvT_S3_RSaIT0_E
FN:203,_ZSt8_DestroyIPN9sharedLib4SongES1_EvT_S3_RSaIT0_E
FNDA:0,_ZSt8_DestroyIPN9sharedLib4SongES1_EvT_S3_RSaIT0_E
FN:203,_ZSt8_DestroyIPN9sharedLib8PlatformES1_EvT_S3_RSaIT0_E
FNDA:0,_ZSt8_DestroyIPN9sharedLib8PlatformES1_EvT_S3_RSaIT0_E
FN:203,_ZSt8_DestroyIPN9sharedLib7MessageES1_EvT_S3_RSaIT0_E
FNDA:0,_ZSt8_DestroyIPN9sharedLib7MessageES1_EvT_S3_RSaIT0_E
FN:203,_ZSt8_DestroyIPPKvS1_EvT_S3_RSaIT0_E
FNDA:11,_ZSt8_DestroyIPPKvS1_EvT_S3_RSaIT0_E
FN:203,_ZSt8_DestroyIPSt10shared_ptrIN7testing8internal15ExpectationBaseEES4_EvT_S6_RSaIT0_E
FNDA:11,_ZSt8_DestroyIPSt10shared_ptrIN7testing8internal15ExpectationBaseEES4_EvT_S6_RSaIT0_E
DA:74,0
DA:75,0
DA:74,0
DA:75,0
DA:74,0
DA:75,0
DA:97,3
DA:98,3
DA:97,0
DA:98,0
DA:97,0
DA:98,0
DA:97,0
DA:98,0
DA:105,14
DA:107,14
DA:108,3
DA:109,11
DA:105,0
DA:107,0
DA:108,0
DA:109,0
DA:105,0
DA:107,0
DA:108,0
DA:109,0
DA:105,0
DA:107,0
DA:108,0
DA:109,0
DA:117,11
DA:117,0
DA:127,11
DA:137,11
DA:138,11
DA:127,11
DA:137,11
DA:138,11
DA:127,0
DA:137,0
DA:138,0
DA:127,0
DA:137,0
DA:138,0
DA:127,0
DA:137,0
DA:138,0
DA:127,0
DA:137,0
DA:138,0
DA:203,11
DA:206,11
DA:207,11
DA:203,11
DA:206,11
DA:207,11
DA:203,0
DA:206,0
DA:207,0
DA:203,0
DA:206,0
DA:207,0
DA:203,0
DA:206,0
DA:207,0
DA:203,0
DA:206,0
DA:207,0
end_of_record
SF:/usr/include/c++/9/bits/unique_ptr.h
FN:75,_ZNKSt14default_deleteINSt7__cxx1112basic_stringIcSt11char_traitsIcESaIcEEEEclEPS5_
FNDA:0,_ZNKSt14default_deleteINSt7__cxx1112basic_stringIcSt11char_traitsIcESaIcEEEEclEPS5_
FN:75,_ZNKSt14default_deleteINSt7__cxx1118basic_stringstreamIcSt11char_traitsIcESaIcEEEEclEPS5_
FNDA:66,_ZNKSt14default_deleteINSt7__cxx1118basic_stringstreamIcSt11char_traitsIcESaIcEEEEclEPS5_
FN:75,_ZNKSt14default_deleteIN7testing8internal18ActionResultHolderIvEEEclEPS3_
FNDA:4,_ZNKSt14default_deleteIN7testing8internal18ActionResultHolderIvEEEclEPS3_
FN:147,_ZNSt15__uniq_ptr_implIN7testing8internal18ActionResultHolderIvEESt14default_deleteIS3_EEC2EPS3_
FNDA:4,_ZNSt15__uniq_ptr_implIN7testing8internal18ActionResultHolderIvEESt14default_deleteIS3_EEC2EPS3_
FN:153,_ZNSt15__uniq_ptr_implIN7testing8internal18ActionResultHolderIvEESt14default_deleteIS3_EE6_M_ptrEv
FNDA:8,_ZNSt15__uniq_ptr_implIN7testing8internal18ActionResultHolderIvEESt14default_deleteIS3_EE6_M_ptrEv
FN:153,_ZNSt15__uniq_ptr_implINSt7__cxx1112basic_stringIcSt11char_traitsIcESaIcEEESt14default_deleteIS5_EE6_M_ptrEv
FNDA:12,_ZNSt15__uniq_ptr_implINSt7__cxx1112basic_stringIcSt11char_traitsIcESaIcEEESt14default_deleteIS5_EE6_M_ptrEv
FN:153,_ZNSt15__uniq_ptr_implINSt7__cxx1118basic_stringstreamIcSt11char_traitsIcESaIcEEESt14default_deleteIS5_EE6_M_ptrEv
FNDA:132,_ZNSt15__uniq_ptr_implINSt7__cxx1118basic_stringstreamIcSt11char_traitsIcESaIcEEESt14default_deleteIS5_EE6_M_ptrEv
FN:154,_ZNKSt15__uniq_ptr_implIN7testing8internal18ActionResultHolderIvEESt14default_deleteIS3_EE6_M_ptrEv
FNDA:4,_ZNKSt15__uniq_ptr_implIN7testing8internal18ActionResultHolderIvEESt14default_deleteIS3_EE6_M_ptrEv
FN:154,_ZNKSt15__uniq_ptr_implINSt7__cxx1112basic_stringIcSt11char_traitsIcESaIcEEESt14default_deleteIS5_EE6_M_ptrEv
FNDA:0,_ZNKSt15__uniq_ptr_implINSt7__cxx1112basic_stringIcSt11char_traitsIcESaIcEEESt14default_deleteIS5_EE6_M_ptrEv
FN:154,_ZNKSt15__uniq_ptr_implIN7testing8internal11ThreadLocalIPNS0_8SequenceEE18ValueHolderFactoryESt14default_deleteIS6_EE6_M_ptrEv
FNDA:1,_ZNKSt15__uniq_ptr_implIN7testing8internal11ThreadLocalIPNS0_8SequenceEE18ValueHolderFactoryESt14default_deleteIS6_EE6_M_ptrEv
FN:155,_ZNSt15__uniq_ptr_implIN7testing8internal18ActionResultHolderIvEESt14default_deleteIS3_EE10_M_deleterEv
FNDA:4,_ZNSt15__uniq_ptr_implIN7testing8internal18ActionResultHolderIvEESt14default_deleteIS3_EE10_M_deleterEv
FN:155,_ZNSt15__uniq_ptr_implINSt7__cxx1112basic_stringIcSt11char_traitsIcESaIcEEESt14default_deleteIS5_EE10_M_deleterEv
FNDA:0,_ZNSt15__uniq_ptr_implINSt7__cxx1112basic_stringIcSt11char_traitsIcESaIcEEESt14default_deleteIS5_EE10_M_deleterEv
FN:155,_ZNSt15__uniq_ptr_implINSt7__cxx1118basic_stringstreamIcSt11char_traitsIcESaIcEEESt14default_deleteIS5_EE10_M_deleterEv
FNDA:66,_ZNSt15__uniq_ptr_implINSt7__cxx1118basic_stringstreamIcSt11char_traitsIcESaIcEEESt14default_deleteIS5_EE10_M_deleterEv
FN:211,_ZNSt10unique_ptrIN7testing8internal18ActionResultHolderIvEESt14default_deleteIS3_EEC2IS5_vEEPS3_
FNDA:4,_ZNSt10unique_ptrIN7testing8internal18ActionResultHolderIvEESt14default_deleteIS3_EEC2IS5_vEEPS3_
FN:286,_ZNSt10unique_ptrIN7testing8internal18ActionResultHolderIvEESt14default_deleteIS3_EED2Ev
FNDA:4,_ZNSt10unique_ptrIN7testing8internal18ActionResultHolderIvEESt14default_deleteIS3_EED2Ev
FN:286,_ZNSt10unique_ptrINSt7__cxx1112basic_stringIcSt11char_traitsIcESaIcEEESt14default_deleteIS5_EED2Ev
FNDA:12,_ZNSt10unique_ptrINSt7__cxx1112basic_stringIcSt11char_traitsIcESaIcEEESt14default_deleteIS5_EED2Ev
FN:286,_ZNSt10unique_ptrINSt7__cxx1118basic_stringstreamIcSt11char_traitsIcESaIcEEESt14default_deleteIS5_EED2Ev
FNDA:66,_ZNSt10unique_ptrINSt7__cxx1118basic_stringstreamIcSt11char_traitsIcESaIcEEESt14default_deleteIS5_EED2Ev
FN:352,_ZNKSt10unique_ptrIN7testing8internal18ActionResultHolderIvEESt14default_deleteIS3_EEptEv
FNDA:4,_ZNKSt10unique_ptrIN7testing8internal18ActionResultHolderIvEESt14default_deleteIS3_EEptEv
FN:352,_ZNKSt10unique_ptrIN7testing8internal11ThreadLocalIPNS0_8SequenceEE18ValueHolderFactoryESt14default_deleteIS6_EEptEv
FNDA:1,_ZNKSt10unique_ptrIN7testing8internal11ThreadLocalIPNS0_8SequenceEE18ValueHolderFactoryESt14default_deleteIS6_EEptEv
FN:352,_ZNKSt10unique_ptrINSt7__cxx1112basic_stringIcSt11char_traitsIcESaIcEEESt14default_deleteIS5_EEptEv
FNDA:0,_ZNKSt10unique_ptrINSt7__cxx1112basic_stringIcSt11char_traitsIcESaIcEEESt14default_deleteIS5_EEptEv
FN:360,_ZNKSt10unique_ptrIN7testing8internal18ActionResultHolderIvEESt14default_deleteIS3_EE3getEv
FNDA:4,_ZNKSt10unique_ptrIN7testing8internal18ActionResultHolderIvEESt14default_deleteIS3_EE3getEv
FN:360,_ZNKSt10unique_ptrINSt7__cxx1112basic_stringIcSt11char_traitsIcESaIcEEESt14default_deleteIS5_EE3getEv
FNDA:0,_ZNKSt10unique_ptrINSt7__cxx1112basic_stringIcSt11char_traitsIcESaIcEEESt14default_deleteIS5_EE3getEv
FN:360,_ZNKSt10unique_ptrIN7testing8internal11ThreadLocalIPNS0_8SequenceEE18ValueHolderFactoryESt14default_deleteIS6_EE3getEv
FNDA:1,_ZNKSt10unique_ptrIN7testing8internal11ThreadLocalIPNS0_8SequenceEE18ValueHolderFactoryESt14default_deleteIS6_EE3getEv
FN:365,_ZNSt10unique_ptrINSt7__cxx1112basic_stringIcSt11char_traitsIcESaIcEEESt14default_deleteIS5_EE11get_deleterEv
FNDA:0,_ZNSt10unique_ptrINSt7__cxx1112basic_stringIcSt11char_traitsIcESaIcEEESt14default_deleteIS5_EE11get_deleterEv
FN:365,_ZNSt10unique_ptrIN7testing8internal18ActionResultHolderIvEESt14default_deleteIS3_EE11get_deleterEv
FNDA:4,_ZNSt10unique_ptrIN7testing8internal18ActionResultHolderIvEESt14default_deleteIS3_EE11get_deleterEv
FN:365,_ZNSt10unique_ptrINSt7__cxx1118basic_stringstreamIcSt11char_traitsIcESaIcEEESt14default_deleteIS5_EE11get_deleterEv
FNDA:66,_ZNSt10unique_ptrINSt7__cxx1118basic_stringstreamIcSt11char_traitsIcESaIcEEESt14default_deleteIS5_EE11get_deleterEv
DA:75,4
DA:81,4
DA:82,4
DA:75,0
DA:81,0
DA:82,0
DA:75,66
DA:81,66
DA:82,66
DA:147,4
DA:153,8
DA:153,12
DA:153,132
DA:154,1
DA:154,4
DA:154,0
DA:155,4
DA:155,0
DA:155,66
DA:211,4
DA:212,4
DA:213,4
DA:286,4
DA:290,4
DA:291,4
DA:292,4
DA:293,4
DA:294,4
DA:286,12
DA:290,12
DA:291,12
DA:292,0
DA:293,12
DA:294,12
DA:286,66
DA:290,66
DA:291,66
DA:292,66
DA:293,66
DA:294,66
DA:352,1
DA:355,1
DA:352,4
DA:355,4
DA:352,0
DA:355,0
DA:360,1
DA:361,1
DA:360,4
DA:361,4
DA:360,0
DA:361,0
DA:365,4
DA:366,4
DA:365,0
DA:366,0
DA:365,66
DA:366,66
end_of_record
SF:/usr/include/c++/9/bits/stl_iterator_base_funcs.h
FN:98,_ZSt10__distanceIPcENSt15iterator_traitsIT_E15difference_typeES2_S2_St26random_access_iterator_tag
FNDA:0,_ZSt10__distanceIPcENSt15iterator_traitsIT_E15difference_typeES2_S2_St26random_access_iterator_tag
FN:98,_ZSt10__distanceIPKcENSt15iterator_traitsIT_E15difference_typeES3_S3_St26random_access_iterator_tag
FNDA:0,_ZSt10__distanceIPKcENSt15iterator_traitsIT_E15difference_typeES3_S3_St26random_access_iterator_tag
FN:138,_ZSt8distanceIPcENSt15iterator_traitsIT_E15difference_typeES2_S2_
FNDA:0,_ZSt8distanceIPcENSt15iterator_traitsIT_E15difference_typeES2_S2_
FN:138,_ZSt8distanceIPKcENSt15iterator_traitsIT_E15difference_typeES3_S3_
FNDA:0,_ZSt8distanceIPKcENSt15iterator_traitsIT_E15difference_typeES3_S3_
DA:98,0
DA:104,0
DA:98,0
DA:104,0
DA:138,0
DA:141,0
DA:142,0
DA:138,0
DA:141,0
DA:142,0
end_of_record
SF:/usr/include/c++/9/bits/char_traits.h
FN:336,_ZNSt11char_traitsIcE6lengthEPKc
FNDA:0,_ZNSt11char_traitsIcE6lengthEPKc
FN:368,_ZNSt11char_traitsIcE4copyEPcPKcm
FNDA:0,_ZNSt11char_traitsIcE4copyEPcPKcm
DA:336,0
DA:342,0
DA:368,0
DA:370,0
DA:371,0
DA:372,0
end_of_record
SF:/usr/local/include/gmock/gmock-cardinalities.h
FN:111,_ZNK7testing11Cardinality22IsSaturatedByCallCountEi
FNDA:6,_ZNK7testing11Cardinality22IsSaturatedByCallCountEi
DA:111,6
DA:112,6
end_of_record
SF:/usr/include/c++/9/ext/atomicity.h
FN:48,_ZN9__gnu_cxxL18__exchange_and_addEPVii
FNDA:24,_ZN9__gnu_cxxL18__exchange_and_addEPVii
FN:52,_ZN9__gnu_cxxL12__atomic_addEPVii
FNDA:6,_ZN9__gnu_cxxL12__atomic_addEPVii
FN:65,_ZN9__gnu_cxxL25__exchange_and_add_singleEPii
FNDA:0,_ZN9__gnu_cxxL25__exchange_and_add_singleEPii
FN:73,_ZN9__gnu_cxxL19__atomic_add_singleEPii
FNDA:0,_ZN9__gnu_cxxL19__atomic_add_singleEPii
FN:78,_ZN9__gnu_cxxL27__exchange_and_add_dispatchEPii
FNDA:24,_ZN9__gnu_cxxL27__exchange_and_add_dispatchEPii
FN:92,_ZN9__gnu_cxxL21__atomic_add_dispatchEPii
FNDA:6,_ZN9__gnu_cxxL21__atomic_add_dispatchEPii
DA:48,24
DA:49,24
DA:52,6
DA:53,6
DA:65,0
DA:67,0
DA:68,0
DA:69,0
DA:73,0
DA:74,0
DA:78,24
DA:81,24
DA:82,24
DA:84,0
DA:92,6
DA:95,6
DA:96,6
DA:98,0
DA:102,6
end_of_record
SF:/usr/include/c++/9/bits/shared_ptr_base.h
FN:117,_ZNSt16_Sp_counted_baseILN9__gnu_cxx12_Lock_policyE2EEC2Ev
FNDA:9,_ZNSt16_Sp_counted_baseILN9__gnu_cxx12_Lock_policyE2EEC2Ev
FN:121,_ZNSt16_Sp_counted_baseILN9__gnu_cxx12_Lock_policyE2EED0Ev
FNDA:0,_ZNSt16_Sp_counted_baseILN9__gnu_cxx12_Lock_policyE2EED0Ev
FN:121,_ZNSt16_Sp_counted_baseILN9__gnu_cxx12_Lock_policyE2EED2Ev
FNDA:9,_ZNSt16_Sp_counted_baseILN9__gnu_cxx12_Lock_policyE2EED2Ev
FN:131,_ZNSt16_Sp_counted_baseILN9__gnu_cxx12_Lock_policyE2EE10_M_destroyEv
FNDA:0,_ZNSt16_Sp_counted_baseILN9__gnu_cxx12_Lock_policyE2EE10_M_destroyEv
FN:138,_ZNSt16_Sp_counted_baseILN9__gnu_cxx12_Lock_policyE2EE15_M_add_ref_copyEv
FNDA:6,_ZNSt16_Sp_counted_baseILN9__gnu_cxx12_Lock_policyE2EE15_M_add_ref_copyEv
FN:148,_ZNSt16_Sp_counted_baseILN9__gnu_cxx12_Lock_policyE2EE10_M_releaseEv
FNDA:15,_ZNSt16_Sp_counted_baseILN9__gnu_cxx12_Lock_policyE2EE10_M_releaseEv
FN:372,_ZNSt15_Sp_counted_ptrIPN7testing8internal16TypedExpectationIFvvEEELN9__gnu_cxx12_Lock_policyE2EEC2ES5_
FNDA:3,_ZNSt15_Sp_counted_ptrIPN7testing8internal16TypedExpectationIFvvEEELN9__gnu_cxx12_Lock_policyE2EEC2ES5_
FN:376,_ZNSt15_Sp_counted_ptrIPN7testing8internal16TypedExpectationIFvvEEELN9__gnu_cxx12_Lock_policyE2EE10_M_disposeEv
FNDA:3,_ZNSt15_Sp_counted_ptrIPN7testing8internal16TypedExpectationIFvvEEELN9__gnu_cxx12_Lock_policyE2EE10_M_disposeEv
FN:380,_ZNSt15_Sp_counted_ptrIPN7testing8internal16TypedExpectationIFvvEEELN9__gnu_cxx12_Lock_policyE2EE10_M_destroyEv
FNDA:3,_ZNSt15_Sp_counted_ptrIPN7testing8internal16TypedExpectationIFvvEEELN9__gnu_cxx12_Lock_policyE2EE10_M_destroyEv
FN:384,_ZNSt15_Sp_counted_ptrIPN7testing8internal16TypedExpectationIFvvEEELN9__gnu_cxx12_Lock_policyE2EE14_M_get_deleterERKSt9type_info
FNDA:0,_ZNSt15_Sp_counted_ptrIPN7testing8internal16TypedExpectationIFvvEEELN9__gnu_cxx12_Lock_policyE2EE14_M_get_deleterERKSt9type_info
FN:616,_ZNSt14__shared_countILN9__gnu_cxx12_Lock_policyE2EEC2Ev
FNDA:0,_ZNSt14__shared_countILN9__gnu_cxx12_Lock_policyE2EEC2Ev
FN:621,_ZNSt14__shared_countILN9__gnu_cxx12_Lock_policyE2EEC2IPN7testing8internal16TypedExpectationIFvvEEEEET_
FNDA:3,_ZNSt14__shared_countILN9__gnu_cxx12_Lock_policyE2EEC2IPN7testing8internal16TypedExpectationIFvvEEEEET_
FN:635,_ZNSt14__shared_countILN9__gnu_cxx12_Lock_policyE2EEC2IPN7testing8internal16TypedExpectationIFvvEEEEET_St17integral_constantIbLb0EE
FNDA:3,_ZNSt14__shared_countILN9__gnu_cxx12_Lock_policyE2EEC2IPN7testing8internal16TypedExpectationIFvvEEEEET_St17integral_constantIbLb0EE
FN:727,_ZNSt14__shared_countILN9__gnu_cxx12_Lock_policyE2EED2Ev
FNDA:12,_ZNSt14__shared_countILN9__gnu_cxx12_Lock_policyE2EED2Ev
FN:733,_ZNSt14__shared_countILN9__gnu_cxx12_Lock_policyE2EEC2ERKS2_
FNDA:3,_ZNSt14__shared_countILN9__gnu_cxx12_Lock_policyE2EEC2ERKS2_
FN:756,_ZNSt14__shared_countILN9__gnu_cxx12_Lock_policyE2EE7_M_swapERS2_
FNDA:0,_ZNSt14__shared_countILN9__gnu_cxx12_Lock_policyE2EE7_M_swapERS2_
FN:1012,_ZNKSt19__shared_ptr_accessIN7testing8internal15ExpectationBaseELN9__gnu_cxx12_Lock_policyE2ELb0ELb0EEptEv
FNDA:0,_ZNKSt19__shared_ptr_accessIN7testing8internal15ExpectationBaseELN9__gnu_cxx12_Lock_policyE2ELb0ELb0EEptEv
FN:1012,_ZNKSt19__shared_ptr_accessIKN7testing20CardinalityInterfaceELN9__gnu_cxx12_Lock_policyE2ELb0ELb0EEptEv
FNDA:21,_ZNKSt19__shared_ptr_accessIKN7testing20CardinalityInterfaceELN9__gnu_cxx12_Lock_policyE2ELb0ELb0EEptEv
FN:1020,_ZNKSt19__shared_ptr_accessIKN7testing20CardinalityInterfaceELN9__gnu_cxx12_Lock_policyE2ELb0ELb0EE6_M_getEv
FNDA:21,_ZNKSt19__shared_ptr_accessIKN7testing20CardinalityInterfaceELN9__gnu_cxx12_Lock_policyE2ELb0ELb0EE6_M_getEv
FN:1020,_ZNKSt19__shared_ptr_accessIN7testing8internal15ExpectationBaseELN9__gnu_cxx12_Lock_policyE2ELb0ELb0EE6_M_getEv
FNDA:0,_ZNKSt19__shared_ptr_accessIN7testing8internal15ExpectationBaseELN9__gnu_cxx12_Lock_policyE2ELb0ELb0EE6_M_getEv
FN:1124,_ZNSt12__shared_ptrIN7testing8internal15ExpectationBaseELN9__gnu_cxx12_Lock_policyE2EEC2INS1_16TypedExpectationIFvvEEEvEEPT_
FNDA:3,_ZNSt12__shared_ptrIN7testing8internal15ExpectationBaseELN9__gnu_cxx12_Lock_policyE2EEC2INS1_16TypedExpectationIFvvEEEvEEPT_
FN:1167,_ZNSt12__shared_ptrIN7testing8internal15ExpectationBaseELN9__gnu_cxx12_Lock_policyE2EEC2ERKS5_
FNDA:3,_ZNSt12__shared_ptrIN7testing8internal15ExpectationBaseELN9__gnu_cxx12_Lock_policyE2EEC2ERKS5_
FN:1169,_ZNSt12__shared_ptrIN7testing8internal15ExpectationBaseELN9__gnu_cxx12_Lock_policyE2EED2Ev
FNDA:6,_ZNSt12__shared_ptrIN7testing8internal15ExpectationBaseELN9__gnu_cxx12_Lock_policyE2EED2Ev
FN:1169,_ZNSt12__shared_ptrIKN7testing20CardinalityInterfaceELN9__gnu_cxx12_Lock_policyE2EED2Ev
FNDA:6,_ZNSt12__shared_ptrIKN7testing20CardinalityInterfaceELN9__gnu_cxx12_Lock_policyE2EED2Ev
FN:1176,_ZNSt12__shared_ptrIN7testing8internal15ExpectationBaseELN9__gnu_cxx12_Lock_policyE2EEC2EOS5_
FNDA:0,_ZNSt12__shared_ptrIN7testing8internal15ExpectationBaseELN9__gnu_cxx12_Lock_policyE2EEC2EOS5_
FN:1309,_ZNKSt12__shared_ptrIN7testing8internal15ExpectationBaseELN9__gnu_cxx12_Lock_policyE2EE3getEv
FNDA:6,_ZNKSt12__shared_ptrIN7testing8internal15ExpectationBaseELN9__gnu_cxx12_Lock_policyE2EE3getEv
FN:1309,_ZNKSt12__shared_ptrIKN7testing20CardinalityInterfaceELN9__gnu_cxx12_Lock_policyE2EE3getEv
FNDA:21,_ZNKSt12__shared_ptrIKN7testing20CardinalityInterfaceELN9__gnu_cxx12_Lock_policyE2EE3getEv
FN:1388,_ZNSt12__shared_ptrIN7testing8internal15ExpectationBaseELN9__gnu_cxx12_Lock_policyE2EE31_M_enable_shared_from_this_withINS1_16TypedExpectationIFvvEEES9_EENSt9enable_ifIXntsrNS5_15__has_esft_baseIT0_vEE5valueEvE4typeEPT_
FNDA:3,_ZNSt12__shared_ptrIN7testing8internal15ExpectationBaseELN9__gnu_cxx12_Lock_policyE2EE31_M_enable_shared_from_this_withINS1_16TypedExpectationIFvvEEES9_EENSt9enable_ifIXntsrNS5_15__has_esft_baseIT0_vEE5valueEvE4typeEPT_
DA:117,9
DA:118,9
DA:121,0
DA:122,0
DA:121,9
DA:122,9
DA:131,0
DA:132,0
DA:138,6
DA:139,6
DA:148,15
DA:152,15
DA:155,9
DA:167,9
DA:168,9
DA:171,9
DA:174,15
DA:372,3
DA:373,3
DA:376,3
DA:377,3
DA:380,3
DA:381,3
DA:384,0
DA:385,0
DA:616,0
DA:617,0
DA:621,3
DA:625,3
DA:627,0
DA:629,0
DA:630,0
DA:632,3
DA:635,3
DA:636,3
DA:637,3
DA:727,12
DA:729,12
DA:730,12
DA:731,12
DA:733,3
DA:734,3
DA:736,3
DA:737,3
DA:738,3
DA:756,0
DA:758,0
DA:759,0
DA:760,0
DA:761,0
DA:1012,0
DA:1015,0
DA:1012,21
DA:1015,21
DA:1020,0
DA:1021,0
DA:1020,21
DA:1021,21
DA:1124,3
DA:1125,3
DA:1129,3
DA:1130,3
DA:1167,3
DA:1169,6
DA:1169,6
DA:1176,0
DA:1177,0
DA:1179,0
DA:1180,0
DA:1181,0
DA:1309,21
DA:1310,21
DA:1309,6
DA:1310,6
DA:1388,3
DA:1389,3
end_of_record
SF:/home/aint/park/tempMusicial/Musicial/qt/lib/mainlib.h
FN:68,_ZN6client9checkURLsIN9sharedLib4SongEEEbNSt6vectorIT_SaIS4_EE8iteratorES7_
FNDA:3,_ZN6client9checkURLsIN9sharedLib4SongEEEbNSt6vectorIT_SaIS4_EE8iteratorES7_
FN:68,_ZN6client9checkURLsIN9sharedLib8PlaylistEEEbNSt6vectorIT_SaIS4_EE8iteratorES7_
FNDA:3,_ZN6client9checkURLsIN9sharedLib8PlaylistEEEbNSt6vectorIT_SaIS4_EE8iteratorES7_
FN:72,_ZZN6client9checkURLsIN9sharedLib4SongEEEbNSt6vectorIT_SaIS4_EE8iteratorES7_ENKUlRKS2_E_clES9_
FNDA:5,_ZZN6client9checkURLsIN9sharedLib4SongEEEbNSt6vectorIT_SaIS4_EE8iteratorES7_ENKUlRKS2_E_clES9_
FN:72,_ZZN6client9checkURLsIN9sharedLib8PlaylistEEEbNSt6vectorIT_SaIS4_EE8iteratorES7_ENKUlRKS2_E_clES9_
FNDA:5,_ZZN6client9checkURLsIN9sharedLib8PlaylistEEEbNSt6vectorIT_SaIS4_EE8iteratorES7_ENKUlRKS2_E_clES9_
DA:68,3
DA:71,6
DA:75,3
DA:76,2
DA:78,1
DA:68,3
DA:71,6
DA:75,3
DA:76,2
DA:78,1
DA:72,5
DA:72,5
DA:73,18
DA:74,18
end_of_record
SF:/usr/include/c++/9/bits/stl_vector.h
FN:94,_ZNSt12_Vector_baseIN9sharedLib8PlaylistESaIS1_EE17_Vector_impl_dataC2Ev
FNDA:0,_ZNSt12_Vector_baseIN9sharedLib8PlaylistESaIS1_EE17_Vector_impl_dataC2Ev
FN:94,_ZNSt12_Vector_baseIN9sharedLib8PlatformESaIS1_EE17_Vector_impl_dataC2Ev
FNDA:0,_ZNSt12_Vector_baseIN9sharedLib8PlatformESaIS1_EE17_Vector_impl_dataC2Ev
FN:94,_ZNSt12_Vector_baseIPKvSaIS1_EE17_Vector_impl_dataC2Ev
FNDA:15,_ZNSt12_Vector_baseIPKvSaIS1_EE17_Vector_impl_dataC2Ev
FN:94,_ZNSt12_Vector_baseIN9sharedLib4SongESaIS1_EE17_Vector_impl_dataC2Ev
FNDA:0,_ZNSt12_Vector_baseIN9sharedLib4SongESaIS1_EE17_Vector_impl_dataC2Ev
FN:106,_ZNSt12_Vector_baseIPKvSaIS1_EE17_Vector_impl_data12_M_copy_dataERKS4_
FNDA:12,_ZNSt12_Vector_baseIPKvSaIS1_EE17_Vector_impl_data12_M_copy_dataERKS4_
FN:114,_ZNSt12_Vector_baseIPKvSaIS1_EE17_Vector_impl_data12_M_swap_dataERS4_
FNDA:4,_ZNSt12_Vector_baseIPKvSaIS1_EE17_Vector_impl_data12_M_swap_dataERS4_
FN:128,_ZNSt12_Vector_baseIN9sharedLib8PlatformESaIS1_EE12_Vector_implC2Ev
FNDA:0,_ZNSt12_Vector_baseIN9sharedLib8PlatformESaIS1_EE12_Vector_implC2Ev
FN:128,_ZNSt12_Vector_baseIN9sharedLib4SongESaIS1_EE12_Vector_implC2Ev
FNDA:0,_ZNSt12_Vector_baseIN9sharedLib4SongESaIS1_EE12_Vector_implC2Ev
FN:128,_ZNSt12_Vector_baseIN9sharedLib8PlaylistESaIS1_EE12_Vector_implC2Ev
FNDA:0,_ZNSt12_Vector_baseIN9sharedLib8PlaylistESaIS1_EE12_Vector_implC2Ev
FN:128,_ZNSt12_Vector_baseIPKvSaIS1_EE12_Vector_implC2Ev
FNDA:11,_ZNSt12_Vector_baseIPKvSaIS1_EE12_Vector_implC2Ev
FN:273,_ZNSt12_Vector_baseIN9sharedLib4SongESaIS1_EE19_M_get_Tp_allocatorEv
FNDA:0,_ZNSt12_Vector_baseIN9sharedLib4SongESaIS1_EE19_M_get_Tp_allocatorEv
FN:273,_ZNSt12_Vector_baseISt10shared_ptrIN7testing8internal15ExpectationBaseEESaIS4_EE19_M_get_Tp_allocatorEv
FNDA:25,_ZNSt12_Vector_baseISt10shared_ptrIN7testing8internal15ExpectationBaseEESaIS4_EE19_M_get_Tp_allocatorEv
FN:273,_ZNSt12_Vector_baseIN9sharedLib7MessageESaIS1_EE19_M_get_Tp_allocatorEv
FNDA:0,_ZNSt12_Vector_baseIN9sharedLib7MessageESaIS1_EE19_M_get_Tp_allocatorEv
FN:273,_ZNSt12_Vector_baseIN9sharedLib8PlaylistESaIS1_EE19_M_get_Tp_allocatorEv
FNDA:0,_ZNSt12_Vector_baseIN9sharedLib8PlaylistESaIS1_EE19_M_get_Tp_allocatorEv
FN:273,_ZNSt12_Vector_baseIN9sharedLib8PlatformESaIS1_EE19_M_get_Tp_allocatorEv
FNDA:0,_ZNSt12_Vector_baseIN9sharedLib8PlatformESaIS1_EE19_M_get_Tp_allocatorEv
FN:273,_ZNSt12_Vector_baseIPKvSaIS1_EE19_M_get_Tp_allocatorEv
FNDA:19,_ZNSt12_Vector_baseIPKvSaIS1_EE19_M_get_Tp_allocatorEv
FN:277,_ZNKSt12_Vector_baseIN9sharedLib8PlaylistESaIS1_EE19_M_get_Tp_allocatorEv
FNDA:0,_ZNKSt12_Vector_baseIN9sharedLib8PlaylistESaIS1_EE19_M_get_Tp_allocatorEv
FN:277,_ZNKSt12_Vector_baseIN9sharedLib4SongESaIS1_EE19_M_get_Tp_allocatorEv
FNDA:0,_ZNKSt12_Vector_baseIN9sharedLib4SongESaIS1_EE19_M_get_Tp_allocatorEv
FN:277,_ZNKSt12_Vector_baseIN9sharedLib8PlatformESaIS1_EE19_M_get_Tp_allocatorEv
FNDA:0,_ZNKSt12_Vector_baseIN9sharedLib8PlatformESaIS1_EE19_M_get_Tp_allocatorEv
FN:277,_ZNKSt12_Vector_baseISt10shared_ptrIN7testing8internal15ExpectationBaseEESaIS4_EE19_M_get_Tp_allocatorEv
FNDA:6,_ZNKSt12_Vector_baseISt10shared_ptrIN7testing8internal15ExpectationBaseEESaIS4_EE19_M_get_Tp_allocatorEv
FN:285,_ZNSt12_Vector_baseIN9sharedLib8PlaylistESaIS1_EEC2Ev
FNDA:0,_ZNSt12_Vector_baseIN9sharedLib8PlaylistESaIS1_EEC2Ev
FN:285,_ZNSt12_Vector_baseIN9sharedLib4SongESaIS1_EEC2Ev
FNDA:0,_ZNSt12_Vector_baseIN9sharedLib4SongESaIS1_EEC2Ev
FN:285,_ZNSt12_Vector_baseIN9sharedLib8PlatformESaIS1_EEC2Ev
FNDA:0,_ZNSt12_Vector_baseIN9sharedLib8PlatformESaIS1_EEC2Ev
FN:285,_ZNSt12_Vector_baseIPKvSaIS1_EEC2Ev
FNDA:11,_ZNSt12_Vector_baseIPKvSaIS1_EEC2Ev
FN:330,_ZNSt12_Vector_baseIN9sharedLib8PlatformESaIS1_EED2Ev
FNDA:0,_ZNSt12_Vector_baseIN9sharedLib8PlatformESaIS1_EED2Ev
FN:330,_ZNSt12_Vector_baseIN9sharedLib4SongESaIS1_EED2Ev
FNDA:0,_ZNSt12_Vector_baseIN9sharedLib4SongESaIS1_EED2Ev
FN:330,_ZNSt12_Vector_baseIN9sharedLib8PlaylistESaIS1_EED2Ev
FNDA:0,_ZNSt12_Vector_baseIN9sharedLib8PlaylistESaIS1_EED2Ev
FN:330,_ZNSt12_Vector_baseIPKvSaIS1_EED2Ev
FNDA:11,_ZNSt12_Vector_baseIPKvSaIS1_EED2Ev
FN:330,_ZNSt12_Vector_baseIN9sharedLib7MessageESaIS1_EED2Ev
FNDA:0,_ZNSt12_Vector_baseIN9sharedLib7MessageESaIS1_EED2Ev
FN:340,_ZNSt12_Vector_baseIN9sharedLib8PlatformESaIS1_EE11_M_allocateEm
FNDA:0,_ZNSt12_Vector_baseIN9sharedLib8PlatformESaIS1_EE11_M_allocateEm
FN:340,_ZNSt12_Vector_baseISt10shared_ptrIN7testing8internal15ExpectationBaseEESaIS4_EE11_M_allocateEm
FNDA:3,_ZNSt12_Vector_baseISt10shared_ptrIN7testing8internal15ExpectationBaseEESaIS4_EE11_M_allocateEm
FN:340,_ZNSt12_Vector_baseIN9sharedLib4SongESaIS1_EE11_M_allocateEm
FNDA:0,_ZNSt12_Vector_baseIN9sharedLib4SongESaIS1_EE11_M_allocateEm
FN:340,_ZNSt12_Vector_baseIN9sharedLib8PlaylistESaIS1_EE11_M_allocateEm
FNDA:0,_ZNSt12_Vector_baseIN9sharedLib8PlaylistESaIS1_EE11_M_allocateEm
FN:347,_ZNSt12_Vector_baseIN9sharedLib4SongESaIS1_EE13_M_deallocateEPS1_m
FNDA:0,_ZNSt12_Vector_baseIN9sharedLib4SongESaIS1_EE13_M_deallocateEPS1_m
FN:347,_ZNSt12_Vector_baseIN9sharedLib7MessageESaIS1_EE13_M_deallocateEPS1_m
FNDA:0,_ZNSt12_Vector_baseIN9sharedLib7MessageESaIS1_EE13_M_deallocateEPS1_m
FN:347,_ZNSt12_Vector_baseISt10shared_ptrIN7testing8internal15ExpectationBaseEESaIS4_EE13_M_deallocateEPS4_m
FNDA:11,_ZNSt12_Vector_baseISt10shared_ptrIN7testing8internal15ExpectationBaseEESaIS4_EE13_M_deallocateEPS4_m
FN:347,_ZNSt12_Vector_baseIN9sharedLib8PlatformESaIS1_EE13_M_deallocateEPS1_m
FNDA:0,_ZNSt12_Vector_baseIN9sharedLib8PlatformESaIS1_EE13_M_deallocateEPS1_m
FN:347,_ZNSt12_Vector_baseIPKvSaIS1_EE13_M_deallocateEPS1_m
FNDA:11,_ZNSt12_Vector_baseIPKvSaIS1_EE13_M_deallocateEPS1_m
FN:347,_ZNSt12_Vector_baseIN9sharedLib8PlaylistESaIS1_EE13_M_deallocateEPS1_m
FNDA:0,_ZNSt12_Vector_baseIN9sharedLib8PlaylistESaIS1_EE13_M_deallocateEPS1_m
FN:428,_ZNSt6vectorIN9sharedLib8PlatformESaIS1_EE19_S_nothrow_relocateESt17integral_constantIbLb1EE
FNDA:2,_ZNSt6vectorIN9sharedLib8PlatformESaIS1_EE19_S_nothrow_relocateESt17integral_constantIbLb1EE
FN:428,_ZNSt6vectorISt10shared_ptrIN7testing8internal15ExpectationBaseEESaIS4_EE19_S_nothrow_relocateESt17integral_constantIbLb1EE
FNDA:6,_ZNSt6vectorISt10shared_ptrIN7testing8internal15ExpectationBaseEESaIS4_EE19_S_nothrow_relocateESt17integral_constantIbLb1EE
FN:428,_ZNSt6vectorIN9sharedLib4SongESaIS1_EE19_S_nothrow_relocateESt17integral_constantIbLb1EE
FNDA:14,_ZNSt6vectorIN9sharedLib4SongESaIS1_EE19_S_nothrow_relocateESt17integral_constantIbLb1EE
FN:428,_ZNSt6vectorIN9sharedLib8PlaylistESaIS1_EE19_S_nothrow_relocateESt17integral_constantIbLb1EE
FNDA:14,_ZNSt6vectorIN9sharedLib8PlaylistESaIS1_EE19_S_nothrow_relocateESt17integral_constantIbLb1EE
FN:441,_ZNSt6vectorIN9sharedLib8PlatformESaIS1_EE15_S_use_relocateEv
FNDA:2,_ZNSt6vectorIN9sharedLib8PlatformESaIS1_EE15_S_use_relocateEv
FN:441,_ZNSt6vectorISt10shared_ptrIN7testing8internal15ExpectationBaseEESaIS4_EE15_S_use_relocateEv
FNDA:6,_ZNSt6vectorISt10shared_ptrIN7testing8internal15ExpectationBaseEESaIS4_EE15_S_use_relocateEv
FN:441,_ZNSt6vectorIN9sharedLib8PlaylistESaIS1_EE15_S_use_relocateEv
FNDA:14,_ZNSt6vectorIN9sharedLib8PlaylistESaIS1_EE15_S_use_relocateEv
FN:441,_ZNSt6vectorIN9sharedLib4SongESaIS1_EE15_S_use_relocateEv
FNDA:14,_ZNSt6vectorIN9sharedLib4SongESaIS1_EE15_S_use_relocateEv
FN:450,_ZNSt6vectorIN9sharedLib8PlaylistESaIS1_EE14_S_do_relocateEPS1_S4_S4_RS2_St17integral_constantIbLb1EE
FNDA:14,_ZNSt6vectorIN9sharedLib8PlaylistESaIS1_EE14_S_do_relocateEPS1_S4_S4_RS2_St17integral_constantIbLb1EE
FN:450,_ZNSt6vectorISt10shared_ptrIN7testing8internal15ExpectationBaseEESaIS4_EE14_S_do_relocateEPS4_S7_S7_RS5_St17integral_constantIbLb1EE
FNDA:6,_ZNSt6vectorISt10shared_ptrIN7testing8internal15ExpectationBaseEESaIS4_EE14_S_do_relocateEPS4_S7_S7_RS5_St17integral_constantIbLb1EE
FN:450,_ZNSt6vectorIN9sharedLib8PlatformESaIS1_EE14_S_do_relocateEPS1_S4_S4_RS2_St17integral_constantIbLb1EE
FNDA:2,_ZNSt6vectorIN9sharedLib8PlatformESaIS1_EE14_S_do_relocateEPS1_S4_S4_RS2_St17integral_constantIbLb1EE
FN:450,_ZNSt6vectorIN9sharedLib4SongESaIS1_EE14_S_do_relocateEPS1_S4_S4_RS2_St17integral_constantIbLb1EE
FNDA:14,_ZNSt6vectorIN9sharedLib4SongESaIS1_EE14_S_do_relocateEPS1_S4_S4_RS2_St17integral_constantIbLb1EE
FN:462,_ZNSt6vectorIN9sharedLib8PlatformESaIS1_EE11_S_relocateEPS1_S4_S4_RS2_
FNDA:2,_ZNSt6vectorIN9sharedLib8PlatformESaIS1_EE11_S_relocateEPS1_S4_S4_RS2_
FN:462,_ZNSt6vectorISt10shared_ptrIN7testing8internal15ExpectationBaseEESaIS4_EE11_S_relocateEPS4_S7_S7_RS5_
FNDA:6,_ZNSt6vectorISt10shared_ptrIN7testing8internal15ExpectationBaseEESaIS4_EE11_S_relocateEPS4_S7_S7_RS5_
FN:462,_ZNSt6vectorIN9sharedLib8PlaylistESaIS1_EE11_S_relocateEPS1_S4_S4_RS2_
FNDA:14,_ZNSt6vectorIN9sharedLib8PlaylistESaIS1_EE11_S_relocateEPS1_S4_S4_RS2_
FN:462,_ZNSt6vectorIN9sharedLib4SongESaIS1_EE11_S_relocateEPS1_S4_S4_RS2_
FNDA:14,_ZNSt6vectorIN9sharedLib4SongESaIS1_EE11_S_relocateEPS1_S4_S4_RS2_
FN:484,_ZNSt6vectorIN9sharedLib4SongESaIS1_EEC2Ev
FNDA:0,_ZNSt6vectorIN9sharedLib4SongESaIS1_EEC2Ev
FN:484,_ZNSt6vectorIPKvSaIS1_EEC2Ev
FNDA:11,_ZNSt6vectorIPKvSaIS1_EEC2Ev
FN:484,_ZNSt6vectorIN9sharedLib8PlatformESaIS1_EEC2Ev
FNDA:0,_ZNSt6vectorIN9sharedLib8PlatformESaIS1_EEC2Ev
FN:484,_ZNSt6vectorIN9sharedLib8PlaylistESaIS1_EEC2Ev
FNDA:0,_ZNSt6vectorIN9sharedLib8PlaylistESaIS1_EEC2Ev
FN:675,_ZNSt6vectorIPKvSaIS1_EED2Ev
FNDA:11,_ZNSt6vectorIPKvSaIS1_EED2Ev
FN:675,_ZNSt6vectorIN9sharedLib7MessageESaIS1_EED2Ev
FNDA:0,_ZNSt6vectorIN9sharedLib7MessageESaIS1_EED2Ev
FN:675,_ZNSt6vectorIN9sharedLib8PlaylistESaIS1_EED2Ev
FNDA:0,_ZNSt6vectorIN9sharedLib8PlaylistESaIS1_EED2Ev
FN:675,_ZNSt6vectorIN9sharedLib8PlatformESaIS1_EED2Ev
FNDA:0,_ZNSt6vectorIN9sharedLib8PlatformESaIS1_EED2Ev
FN:675,_ZNSt6vectorIN9sharedLib4SongESaIS1_EED2Ev
FNDA:0,_ZNSt6vectorIN9sharedLib4SongESaIS1_EED2Ev
FN:808,_ZNSt6vectorIN9sharedLib8PlaylistESaIS1_EE5beginEv
FNDA:0,_ZNSt6vectorIN9sharedLib8PlaylistESaIS1_EE5beginEv
FN:808,_ZNSt6vectorIN9sharedLib4SongESaIS1_EE5beginEv
FNDA:0,_ZNSt6vectorIN9sharedLib4SongESaIS1_EE5beginEv
FN:808,_ZNSt6vectorIPKvSaIS1_EE5beginEv
FNDA:7,_ZNSt6vectorIPKvSaIS1_EE5beginEv
FN:808,_ZNSt6vectorISt10shared_ptrIN7testing8internal15ExpectationBaseEESaIS4_EE5beginEv
FNDA:7,_ZNSt6vectorISt10shared_ptrIN7testing8internal15ExpectationBaseEESaIS4_EE5beginEv
FN:808,_ZNSt6vectorIN9sharedLib8PlatformESaIS1_EE5beginEv
FNDA:0,_ZNSt6vectorIN9sharedLib8PlatformESaIS1_EE5beginEv
FN:817,_ZNKSt6vectorIPKvSaIS1_EE5beginEv
FNDA:5,_ZNKSt6vectorIPKvSaIS1_EE5beginEv
FN:817,_ZNKSt6vectorISt10shared_ptrIN7testing8internal15ExpectationBaseEESaIS4_EE5beginEv
FNDA:3,_ZNKSt6vectorISt10shared_ptrIN7testing8internal15ExpectationBaseEESaIS4_EE5beginEv
FN:826,_ZNSt6vectorIN9sharedLib8PlatformESaIS1_EE3endEv
FNDA:0,_ZNSt6vectorIN9sharedLib8PlatformESaIS1_EE3endEv
FN:826,_ZNSt6vectorISt10shared_ptrIN7testing8internal15ExpectationBaseEESaIS4_EE3endEv
FNDA:10,_ZNSt6vectorISt10shared_ptrIN7testing8internal15ExpectationBaseEESaIS4_EE3endEv
FN:826,_ZNSt6vectorIN9sharedLib4SongESaIS1_EE3endEv
FNDA:0,_ZNSt6vectorIN9sharedLib4SongESaIS1_EE3endEv
FN:826,_ZNSt6vectorIPKvSaIS1_EE3endEv
FNDA:7,_ZNSt6vectorIPKvSaIS1_EE3endEv
FN:826,_ZNSt6vectorIN9sharedLib8PlaylistESaIS1_EE3endEv
FNDA:0,_ZNSt6vectorIN9sharedLib8PlaylistESaIS1_EE3endEv
FN:835,_ZNKSt6vectorIPKvSaIS1_EE3endEv
FNDA:5,_ZNKSt6vectorIPKvSaIS1_EE3endEv
FN:835,_ZNKSt6vectorISt10shared_ptrIN7testing8internal15ExpectationBaseEESaIS4_EE3endEv
FNDA:3,_ZNKSt6vectorISt10shared_ptrIN7testing8internal15ExpectationBaseEESaIS4_EE3endEv
FN:853,_ZNKSt6vectorISt10shared_ptrIN7testing8internal15ExpectationBaseEESaIS4_EE6rbeginEv
FNDA:3,_ZNKSt6vectorISt10shared_ptrIN7testing8internal15ExpectationBaseEESaIS4_EE6rbeginEv
FN:853,_ZNKSt6vectorIPKvSaIS1_EE6rbeginEv
FNDA:5,_ZNKSt6vectorIPKvSaIS1_EE6rbeginEv
FN:871,_ZNKSt6vectorISt10shared_ptrIN7testing8internal15ExpectationBaseEESaIS4_EE4rendEv
FNDA:3,_ZNKSt6vectorISt10shared_ptrIN7testing8internal15ExpectationBaseEESaIS4_EE4rendEv
FN:871,_ZNKSt6vectorIPKvSaIS1_EE4rendEv
FNDA:5,_ZNKSt6vectorIPKvSaIS1_EE4rendEv
FN:915,_ZNKSt6vectorIPKvSaIS1_EE4sizeEv
FNDA:6,_ZNKSt6vectorIPKvSaIS1_EE4sizeEv
FN:915,_ZNKSt6vectorISt10shared_ptrIN7testing8internal15ExpectationBaseEESaIS4_EE4sizeEv
FNDA:16,_ZNKSt6vectorISt10shared_ptrIN7testing8internal15ExpectationBaseEESaIS4_EE4sizeEv
FN:915,_ZNKSt6vectorIN9sharedLib8PlaylistESaIS1_EE4sizeEv
FNDA:0,_ZNKSt6vectorIN9sharedLib8PlaylistESaIS1_EE4sizeEv
FN:915,_ZNKSt6vectorIN9sharedLib4SongESaIS1_EE4sizeEv
FNDA:0,_ZNKSt6vectorIN9sharedLib4SongESaIS1_EE4sizeEv
FN:915,_ZNKSt6vectorIN9sharedLib8PlatformESaIS1_EE4sizeEv
FNDA:0,_ZNKSt6vectorIN9sharedLib8PlatformESaIS1_EE4sizeEv
FN:920,_ZNKSt6vectorIN9sharedLib8PlatformESaIS1_EE8max_sizeEv
FNDA:2,_ZNKSt6vectorIN9sharedLib8PlatformESaIS1_EE8max_sizeEv
FN:920,_ZNKSt6vectorISt10shared_ptrIN7testing8internal15ExpectationBaseEESaIS4_EE8max_sizeEv
FNDA:6,_ZNKSt6vectorISt10shared_ptrIN7testing8internal15ExpectationBaseEESaIS4_EE8max_sizeEv
FN:920,_ZNKSt6vectorIN9sharedLib4SongESaIS1_EE8max_sizeEv
FNDA:14,_ZNKSt6vectorIN9sharedLib4SongESaIS1_EE8max_sizeEv
FN:920,_ZNKSt6vectorIN9sharedLib8PlaylistESaIS1_EE8max_sizeEv
FNDA:14,_ZNKSt6vectorIN9sharedLib8PlaylistESaIS1_EE8max_sizeEv
FN:1040,_ZNSt6vectorIN9sharedLib7MessageESaIS1_EEixEm
FNDA:1,_ZNSt6vectorIN9sharedLib7MessageESaIS1_EEixEm
FN:1058,_ZNKSt6vectorISt10shared_ptrIN7testing8internal15ExpectationBaseEESaIS4_EEixEm
FNDA:0,_ZNKSt6vectorISt10shared_ptrIN7testing8internal15ExpectationBaseEESaIS4_EEixEm
FN:1058,_ZNKSt6vectorIPKvSaIS1_EEixEm
FNDA:0,_ZNKSt6vectorIPKvSaIS1_EEixEm
FN:1184,_ZNSt6vectorISt10shared_ptrIN7testing8internal15ExpectationBaseEESaIS4_EE9push_backERKS4_
FNDA:3,_ZNSt6vectorISt10shared_ptrIN7testing8internal15ExpectationBaseEESaIS4_EE9push_backERKS4_
FN:1477,_ZNSt6vectorIPKvSaIS1_EE4swapERS3_
FNDA:4,_ZNSt6vectorIPKvSaIS1_EE4swapERS3_
FN:1753,_ZNKSt6vectorIN9sharedLib8PlaylistESaIS1_EE12_M_check_lenEmPKc
FNDA:7,_ZNKSt6vectorIN9sharedLib8PlaylistESaIS1_EE12_M_check_lenEmPKc
FN:1753,_ZNKSt6vectorISt10shared_ptrIN7testing8internal15ExpectationBaseEESaIS4_EE12_M_check_lenEmPKc
FNDA:3,_ZNKSt6vectorISt10shared_ptrIN7testing8internal15ExpectationBaseEESaIS4_EE12_M_check_lenEmPKc
FN:1753,_ZNKSt6vectorIN9sharedLib8PlatformESaIS1_EE12_M_check_lenEmPKc
FNDA:1,_ZNKSt6vectorIN9sharedLib8PlatformESaIS1_EE12_M_check_lenEmPKc
FN:1753,_ZNKSt6vectorIN9sharedLib4SongESaIS1_EE12_M_check_lenEmPKc
FNDA:7,_ZNKSt6vectorIN9sharedLib4SongESaIS1_EE12_M_check_lenEmPKc
FN:1773,_ZNSt6vectorISt10shared_ptrIN7testing8internal15ExpectationBaseEESaIS4_EE11_S_max_sizeERKS5_
FNDA:6,_ZNSt6vectorISt10shared_ptrIN7testing8internal15ExpectationBaseEESaIS4_EE11_S_max_sizeERKS5_
FN:1773,_ZNSt6vectorIN9sharedLib8PlatformESaIS1_EE11_S_max_sizeERKS2_
FNDA:2,_ZNSt6vectorIN9sharedLib8PlatformESaIS1_EE11_S_max_sizeERKS2_
FN:1773,_ZNSt6vectorIN9sharedLib4SongESaIS1_EE11_S_max_sizeERKS2_
FNDA:14,_ZNSt6vectorIN9sharedLib4SongESaIS1_EE11_S_max_sizeERKS2_
FN:1773,_ZNSt6vectorIN9sharedLib8PlaylistESaIS1_EE11_S_max_sizeERKS2_
FNDA:14,_ZNSt6vectorIN9sharedLib8PlaylistESaIS1_EE11_S_max_sizeERKS2_
DA:94,15
DA:95,15
DA:96,15
DA:94,0
DA:95,0
DA:96,0
DA:94,0
DA:95,0
DA:96,0
DA:94,0
DA:95,0
DA:96,0
DA:106,12
DA:108,12
DA:109,12
DA:110,12
DA:111,12
DA:114,4
DA:118,4
DA:119,4
DA:120,4
DA:121,4
DA:122,4
DA:128,11
DA:130,11
DA:131,11
DA:128,0
DA:130,0
DA:131,0
DA:128,0
DA:130,0
DA:131,0
DA:128,0
DA:130,0
DA:131,0
DA:273,25
DA:274,25
DA:273,19
DA:274,19
DA:273,0
DA:274,0
DA:273,0
DA:274,0
DA:273,0
DA:274,0
DA:273,0
DA:274,0
DA:277,6
DA:278,6
DA:277,0
DA:278,0
DA:277,0
DA:278,0
DA:277,0
DA:278,0
DA:285,11
DA:285,0
DA:285,0
DA:285,0
DA:330,11
DA:332,11
DA:333,11
DA:334,11
DA:330,0
DA:332,0
DA:333,0
DA:334,0
DA:330,0
DA:332,0
DA:333,0
DA:334,0
DA:330,0
DA:332,0
DA:333,0
DA:334,0
DA:330,0
DA:332,0
DA:333,0
DA:334,0
DA:340,3
DA:343,3
DA:340,0
DA:343,0
DA:340,0
DA:343,0
DA:340,0
DA:343,0
DA:347,11
DA:350,11
DA:351,3
DA:352,11
DA:347,11
DA:350,11
DA:351,0
DA:352,11
DA:347,0
DA:350,0
DA:351,0
DA:352,0
DA:347,0
DA:350,0
DA:351,0
DA:352,0
DA:347,0
DA:350,0
DA:351,0
DA:352,0
DA:347,0
DA:350,0
DA:351,0
DA:352,0
DA:428,6
DA:433,6
DA:428,2
DA:433,2
DA:428,14
DA:433,14
DA:428,14
DA:433,14
DA:441,6
DA:446,6
DA:441,2
DA:446,2
DA:441,14
DA:446,14
DA:441,14
DA:446,14
DA:450,6
DA:453,6
DA:450,2
DA:453,2
DA:450,14
DA:453,14
DA:450,14
DA:453,14
DA:462,6
DA:466,6
DA:462,2
DA:466,2
DA:462,14
DA:466,14
DA:462,14
DA:466,14
DA:484,11
DA:484,0
DA:484,0
DA:484,0
DA:675,11
DA:677,11
DA:678,11
DA:680,11
DA:675,0
DA:677,0
DA:678,0
DA:680,0
DA:675,0
DA:677,0
DA:678,0
DA:680,0
DA:675,0
DA:677,0
DA:678,0
DA:680,0
DA:675,0
DA:677,0
DA:678,0
DA:680,0
DA:808,7
DA:809,7
DA:808,0
DA:809,0
DA:808,7
DA:809,7
DA:808,0
DA:809,0
DA:808,0
DA:809,0
DA:817,5
DA:818,5
DA:817,3
DA:818,3
DA:826,10
DA:827,10
DA:826,7
DA:827,7
DA:826,0
DA:827,0
DA:826,0
DA:827,0
DA:826,0
DA:827,0
DA:835,5
DA:836,5
DA:835,3
DA:836,3
DA:853,5
DA:854,5
DA:853,3
DA:854,3
DA:871,5
DA:872,5
DA:871,3
DA:872,3
DA:915,6
DA:916,6
DA:915,16
DA:916,16
DA:915,0
DA:916,0
DA:915,0
DA:916,0
DA:915,0
DA:916,0
DA:920,6
DA:921,6
DA:920,2
DA:921,2
DA:920,14
DA:921,14
DA:920,14
DA:921,14
DA:1040,1
DA:1043,1
DA:1058,0
DA:1061,0
DA:1058,0
DA:1061,0
DA:1184,3
DA:1186,3
DA:1189,0
DA:1191,0
DA:1195,3
DA:1196,3
DA:1477,4
DA:1483,4
DA:1484,4
DA:1486,4
DA:1753,3
DA:1755,3
DA:1756,0
DA:1758,3
DA:1759,3
DA:1753,1
DA:1755,1
DA:1756,0
DA:1758,1
DA:1759,1
DA:1753,7
DA:1755,7
DA:1756,0
DA:1758,7
DA:1759,7
DA:1753,7
DA:1755,7
DA:1756,0
DA:1758,7
DA:1759,7
DA:1773,6
DA:1778,6
DA:1780,6
DA:1781,6
DA:1773,2
DA:1778,2
DA:1780,2
DA:1781,2
DA:1773,14
DA:1778,14
DA:1780,14
DA:1781,14
DA:1773,14
DA:1778,14
DA:1780,14
DA:1781,14
end_of_record
SF:/usr/include/c++/9/bits/stl_algo.h
FN:112,_ZSt9__find_ifIN9__gnu_cxx17__normal_iteratorIPN9sharedLib4SongESt6vectorIS3_SaIS3_EEEENS0_5__ops10_Iter_predIZN6client9checkURLsIS3_EEbNS5_IT_SaISD_EE8iteratorESG_EUlRKS3_E_EEESD_SD_SD_T0_St26random_access_iterator_tag
FNDA:3,_ZSt9__find_ifIN9__gnu_cxx17__normal_iteratorIPN9sharedLib4SongESt6vectorIS3_SaIS3_EEEENS0_5__ops10_Iter_predIZN6client9checkURLsIS3_EEbNS5_IT_SaISD_EE8iteratorESG_EUlRKS3_E_EEESD_SD_SD_T0_St26random_access_iterator_tag
FN:112,_ZSt9__find_ifIN9__gnu_cxx17__normal_iteratorIPN9sharedLib8PlaylistESt6vectorIS3_SaIS3_EEEENS0_5__ops10_Iter_predIZN6client9checkURLsIS3_EEbNS5_IT_SaISD_EE8iteratorESG_EUlRKS3_E_EEESD_SD_SD_T0_St26random_access_iterator_tag
FNDA:3,_ZSt9__find_ifIN9__gnu_cxx17__normal_iteratorIPN9sharedLib8PlaylistESt6vectorIS3_SaIS3_EEEENS0_5__ops10_Iter_predIZN6client9checkURLsIS3_EEbNS5_IT_SaISD_EE8iteratorESG_EUlRKS3_E_EEESD_SD_SD_T0_St26random_access_iterator_tag
FN:159,_ZSt9__find_ifIN9__gnu_cxx17__normal_iteratorIPN9sharedLib4SongESt6vectorIS3_SaIS3_EEEENS0_5__ops10_Iter_predIZN6client9checkURLsIS3_EEbNS5_IT_SaISD_EE8iteratorESG_EUlRKS3_E_EEESD_SD_SD_T0_
FNDA:3,_ZSt9__find_ifIN9__gnu_cxx17__normal_iteratorIPN9sharedLib4SongESt6vectorIS3_SaIS3_EEEENS0_5__ops10_Iter_predIZN6client9checkURLsIS3_EEbNS5_IT_SaISD_EE8iteratorESG_EUlRKS3_E_EEESD_SD_SD_T0_
FN:159,_ZSt9__find_ifIN9__gnu_cxx17__normal_iteratorIPN9sharedLib8PlaylistESt6vectorIS3_SaIS3_EEEENS0_5__ops10_Iter_predIZN6client9checkURLsIS3_EEbNS5_IT_SaISD_EE8iteratorESG_EUlRKS3_E_EEESD_SD_SD_T0_
FNDA:3,_ZSt9__find_ifIN9__gnu_cxx17__normal_iteratorIPN9sharedLib8PlaylistESt6vectorIS3_SaIS3_EEEENS0_5__ops10_Iter_predIZN6client9checkURLsIS3_EEbNS5_IT_SaISD_EE8iteratorESG_EUlRKS3_E_EEESD_SD_SD_T0_
FN:3960,_ZSt7find_ifIN9__gnu_cxx17__normal_iteratorIPN9sharedLib4SongESt6vectorIS3_SaIS3_EEEEZN6client9checkURLsIS3_EEbNS5_IT_SaISB_EE8iteratorESE_EUlRKS3_E_ESB_SB_SB_T0_
FNDA:3,_ZSt7find_ifIN9__gnu_cxx17__normal_iteratorIPN9sharedLib4SongESt6vectorIS3_SaIS3_EEEEZN6client9checkURLsIS3_EEbNS5_IT_SaISB_EE8iteratorESE_EUlRKS3_E_ESB_SB_SB_T0_
FN:3960,_ZSt7find_ifIN9__gnu_cxx17__normal_iteratorIPN9sharedLib8PlaylistESt6vectorIS3_SaIS3_EEEEZN6client9checkURLsIS3_EEbNS5_IT_SaISB_EE8iteratorESE_EUlRKS3_E_ESB_SB_SB_T0_
FNDA:3,_ZSt7find_ifIN9__gnu_cxx17__normal_iteratorIPN9sharedLib8PlaylistESt6vectorIS3_SaIS3_EEEEZN6client9checkURLsIS3_EEbNS5_IT_SaISB_EE8iteratorESE_EUlRKS3_E_ESB_SB_SB_T0_
DA:112,3
DA:116,3
DA:118,3
DA:120,0
DA:121,0
DA:122,0
DA:124,0
DA:125,0
DA:126,0
DA:128,0
DA:129,0
DA:130,0
DA:132,0
DA:133,0
DA:134,0
DA:137,3
DA:139,0
DA:140,0
DA:141,0
DA:142,0
DA:143,3
DA:144,3
DA:145,1
DA:146,2
DA:147,2
DA:148,2
DA:149,1
DA:150,1
DA:151,1
DA:153,1
DA:112,3
DA:116,3
DA:118,3
DA:120,0
DA:121,0
DA:122,0
DA:124,0
DA:125,0
DA:126,0
DA:128,0
DA:129,0
DA:130,0
DA:132,0
DA:133,0
DA:134,0
DA:137,3
DA:139,0
DA:140,0
DA:141,0
DA:142,0
DA:143,3
DA:144,3
DA:145,1
DA:146,2
DA:147,2
DA:148,2
DA:149,1
DA:150,1
DA:151,1
DA:153,1
DA:159,3
DA:161,3
DA:162,6
DA:159,3
DA:161,3
DA:162,6
DA:3960,3
DA:3969,3
DA:3970,3
DA:3960,3
DA:3969,3
DA:3970,3
end_of_record
SF:/usr/local/include/gmock/gmock-actions.h
FN:398,_ZN7testing12DefaultValueIvE6ExistsEv
FNDA:4,_ZN7testing12DefaultValueIvE6ExistsEv
FN:399,_ZN7testing12DefaultValueIvE3GetEv
FNDA:4,_ZN7testing12DefaultValueIvE3GetEv
FN:461,_ZN7testing6ActionIFvvEEC2Ev
FNDA:3,_ZN7testing6ActionIFvvEEC2Ev
FN:486,_ZNK7testing6ActionIFvvEE11IsDoDefaultEv
FNDA:3,_ZNK7testing6ActionIFvvEE11IsDoDefaultEv
FN:494,_ZNK7testing6ActionIFvvEE7PerformESt5tupleIJEE
FNDA:0,_ZNK7testing6ActionIFvvEE7PerformESt5tupleIJEE
FN:865,_ZNK7testing8internal15DoDefaultActioncvNS_6ActionIT_EEIFvvEEEv
FNDA:3,_ZNK7testing8internal15DoDefaultActioncvNS_6ActionIT_EEIFvvEEEv
FN:1303,_ZN7testing9DoDefaultEv
FNDA:3,_ZN7testing9DoDefaultEv
DA:398,4
DA:399,4
DA:461,3
DA:486,3
DA:494,0
DA:495,0
DA:496,0
DA:498,0
DA:865,3
DA:1303,3
DA:1304,3
end_of_record
SF:/usr/include/c++/9/ext/aligned_buffer.h
FN:64,_ZN9__gnu_cxx16__aligned_membufIN7testing11ExpectationEE7_M_addrEv
FNDA:0,_ZN9__gnu_cxx16__aligned_membufIN7testing11ExpectationEE7_M_addrEv
FN:68,_ZNK9__gnu_cxx16__aligned_membufIN7testing11ExpectationEE7_M_addrEv
FNDA:0,_ZNK9__gnu_cxx16__aligned_membufIN7testing11ExpectationEE7_M_addrEv
FN:72,_ZN9__gnu_cxx16__aligned_membufIN7testing11ExpectationEE6_M_ptrEv
FNDA:0,_ZN9__gnu_cxx16__aligned_membufIN7testing11ExpectationEE6_M_ptrEv
FN:76,_ZNK9__gnu_cxx16__aligned_membufIN7testing11ExpectationEE6_M_ptrEv
FNDA:0,_ZNK9__gnu_cxx16__aligned_membufIN7testing11ExpectationEE6_M_ptrEv
DA:64,0
DA:65,0
DA:68,0
DA:69,0
DA:72,0
DA:73,0
DA:76,0
DA:77,0
end_of_record
SF:/usr/include/c++/9/bits/basic_string.h
FN:247,_ZNSt7__cxx1112basic_stringIcSt11char_traitsIcESaIcEE16_M_construct_auxIPcEEvT_S7_St12__false_type
FNDA:0,_ZNSt7__cxx1112basic_stringIcSt11char_traitsIcESaIcEE16_M_construct_auxIPcEEvT_S7_St12__false_type
FN:247,_ZNSt7__cxx1112basic_stringIcSt11char_traitsIcESaIcEE16_M_construct_auxIPKcEEvT_S8_St12__false_type
FNDA:0,_ZNSt7__cxx1112basic_stringIcSt11char_traitsIcESaIcEE16_M_construct_auxIPKcEEvT_S8_St12__false_type
FN:267,_ZNSt7__cxx1112basic_stringIcSt11char_traitsIcESaIcEE12_M_constructIPcEEvT_S7_
FNDA:0,_ZNSt7__cxx1112basic_stringIcSt11char_traitsIcESaIcEE12_M_constructIPcEEvT_S7_
FN:267,_ZNSt7__cxx1112basic_stringIcSt11char_traitsIcESaIcEE12_M_constructIPKcEEvT_S8_
FNDA:0,_ZNSt7__cxx1112basic_stringIcSt11char_traitsIcESaIcEE12_M_constructIPKcEEvT_S8_
FN:6060,_ZStplIcSt11char_traitsIcESaIcEENSt7__cxx1112basic_stringIT_T0_T1_EERKS8_PKS5_
FNDA:16,_ZStplIcSt11char_traitsIcESaIcEENSt7__cxx1112basic_stringIT_T0_T1_EERKS8_PKS5_
FN:6124,_ZStplIcSt11char_traitsIcESaIcEENSt7__cxx1112basic_stringIT_T0_T1_EEOS8_PKS5_
FNDA:37,_ZStplIcSt11char_traitsIcESaIcEENSt7__cxx1112basic_stringIT_T0_T1_EEOS8_PKS5_
FN:6178,_ZSteqIcSt11char_traitsIcESaIcEEbRKNSt7__cxx1112basic_stringIT_T0_T1_EEPKS5_
FNDA:24,_ZSteqIcSt11char_traitsIcESaIcEEbRKNSt7__cxx1112basic_stringIT_T0_T1_EEPKS5_
FN:6216,_ZStneIcSt11char_traitsIcESaIcEEbRKNSt7__cxx1112basic_stringIT_T0_T1_EEPKS5_
FNDA:1,_ZStneIcSt11char_traitsIcESaIcEEbRKNSt7__cxx1112basic_stringIT_T0_T1_EEPKS5_
DA:247,0
DA:251,0
DA:252,0
DA:247,0
DA:251,0
DA:252,0
DA:267,0
DA:270,0
DA:271,0
DA:267,0
DA:270,0
DA:271,0
DA:6060,16
DA:6063,16
DA:6064,16
DA:6065,16
DA:6124,37
DA:6126,37
DA:6178,24
DA:6180,24
DA:6216,1
DA:6218,1
end_of_record
SF:/usr/include/c++/9/bits/stl_set.h
FN:167,_ZNSt3setIN7testing11ExpectationENS1_4LessESaIS1_EEC2Ev
FNDA:3,_ZNSt3setIN7testing11ExpectationENS1_4LessESaIS1_EEC2Ev
FN:281,_ZNSt3setIN7testing11ExpectationENS1_4LessESaIS1_EED2Ev
FNDA:3,_ZNSt3setIN7testing11ExpectationENS1_4LessESaIS1_EED2Ev
FN:344,_ZNKSt3setIN7testing11ExpectationENS1_4LessESaIS1_EE5beginEv
FNDA:6,_ZNKSt3setIN7testing11ExpectationENS1_4LessESaIS1_EE5beginEv
FN:353,_ZNKSt3setIN7testing11ExpectationENS1_4LessESaIS1_EE3endEv
FNDA:6,_ZNKSt3setIN7testing11ExpectationENS1_4LessESaIS1_EE3endEv
DA:167,3
DA:281,3
DA:344,6
DA:345,6
DA:353,6
DA:354,6
end_of_record
SF:/usr/local/include/gtest/gtest.h
FN:244,_ZN7testing4Test14SetUpTestSuiteEv
FNDA:0,_ZN7testing4Test14SetUpTestSuiteEv
FN:252,_ZN7testing4Test17TearDownTestSuiteEv
FNDA:0,_ZN7testing4Test17TearDownTestSuiteEv
FN:257,_ZN7testing4Test16TearDownTestCaseEv
FNDA:0,_ZN7testing4Test16TearDownTestCaseEv
FN:258,_ZN7testing4Test13SetUpTestCaseEv
FNDA:0,_ZN7testing4Test13SetUpTestCaseEv
FN:339,_ZN7testing4Test5SetupEv
FNDA:0,_ZN7testing4Test5SetupEv
FN:1343,_ZN7testing8internal18CmpHelperEQFailureINSt7__cxx1112basic_stringIcSt11char_traitsIcESaIcEEEA8_cEENS_15AssertionResultEPKcSB_RKT_RKT0_
FNDA:0,_ZN7testing8internal18CmpHelperEQFailureINSt7__cxx1112basic_stringIcSt11char_traitsIcESaIcEEEA8_cEENS_15AssertionResultEPKcSB_RKT_RKT0_
FN:1343,_ZN7testing8internal18CmpHelperEQFailureINSt7__cxx1112basic_stringIcSt11char_traitsIcESaIcEEEA5_cEENS_15AssertionResultEPKcSB_RKT_RKT0_
FNDA:0,_ZN7testing8internal18CmpHelperEQFailureINSt7__cxx1112basic_stringIcSt11char_traitsIcESaIcEEEA5_cEENS_15AssertionResultEPKcSB_RKT_RKT0_
FN:1343,_ZN7testing8internal18CmpHelperEQFailureIbbEENS_15AssertionResultEPKcS4_RKT_RKT0_
FNDA:0,_ZN7testing8internal18CmpHelperEQFailureIbbEENS_15AssertionResultEPKcS4_RKT_RKT0_
FN:1362,_ZN7testing8internal11CmpHelperEQINSt7__cxx1112basic_stringIcSt11char_traitsIcESaIcEEEA8_cEENS_15AssertionResultEPKcSB_RKT_RKT0_
FNDA:2,_ZN7testing8internal11CmpHelperEQINSt7__cxx1112basic_stringIcSt11char_traitsIcESaIcEEEA8_cEENS_15AssertionResultEPKcSB_RKT_RKT0_
FN:1362,_ZN7testing8internal11CmpHelperEQINSt7__cxx1112basic_stringIcSt11char_traitsIcESaIcEEEA5_cEENS_15AssertionResultEPKcSB_RKT_RKT0_
FNDA:1,_ZN7testing8internal11CmpHelperEQINSt7__cxx1112basic_stringIcSt11char_traitsIcESaIcEEEA5_cEENS_15AssertionResultEPKcSB_RKT_RKT0_
FN:1362,_ZN7testing8internal11CmpHelperEQIbbEENS_15AssertionResultEPKcS4_RKT_RKT0_
FNDA:9,_ZN7testing8internal11CmpHelperEQIbbEENS_15AssertionResultEPKcS4_RKT_RKT0_
FN:1382,_ZN7testing8internal8EqHelper7CompareINSt7__cxx1112basic_stringIcSt11char_traitsIcESaIcEEEA8_cLPv0EEENS_15AssertionResultEPKcSD_RKT_RKT0_
FNDA:2,_ZN7testing8internal8EqHelper7CompareINSt7__cxx1112basic_stringIcSt11char_traitsIcESaIcEEEA8_cLPv0EEENS_15AssertionResultEPKcSD_RKT_RKT0_
FN:1382,_ZN7testing8internal8EqHelper7CompareINSt7__cxx1112basic_stringIcSt11char_traitsIcESaIcEEEA5_cLPv0EEENS_15AssertionResultEPKcSD_RKT_RKT0_
FNDA:1,_ZN7testing8internal8EqHelper7CompareINSt7__cxx1112basic_stringIcSt11char_traitsIcESaIcEEEA5_cLPv0EEENS_15AssertionResultEPKcSD_RKT_RKT0_
FN:1382,_ZN7testing8internal8EqHelper7CompareIbbLPv0EEENS_15AssertionResultEPKcS6_RKT_RKT0_
FNDA:9,_ZN7testing8internal8EqHelper7CompareIbbLPv0EEENS_15AssertionResultEPKcS6_RKT_RKT0_
DA:244,0
DA:252,0
DA:257,0
DA:258,0
DA:339,0
DA:1343,0
DA:1350,0
DA:1343,0
DA:1350,0
DA:1343,0
DA:1350,0
DA:1362,2
DA:1366,2
DA:1367,2
DA:1370,0
DA:1362,1
DA:1366,1
DA:1367,1
DA:1370,0
DA:1362,9
DA:1366,9
DA:1367,9
DA:1370,0
DA:1382,2
DA:1385,2
DA:1382,1
DA:1385,1
DA:1382,9
DA:1385,9
end_of_record
SF:/usr/local/include/gtest/internal/gtest-internal.h
FN:456,_ZN7testing8internal15TestFactoryBaseD0Ev
FNDA:0,_ZN7testing8internal15TestFactoryBaseD0Ev
FN:456,_ZN7testing8internal15TestFactoryBaseD2Ev
FNDA:5,_ZN7testing8internal15TestFactoryBaseD2Ev
FN:463,_ZN7testing8internal15TestFactoryBaseC2Ev
FNDA:5,_ZN7testing8internal15TestFactoryBaseC2Ev
FN:474,_ZN7testing8internal15TestFactoryImplI36mMessageGroup_MockmMessageGroup_TestE10CreateTestEv
FNDA:1,_ZN7testing8internal15TestFactoryImplI36mMessageGroup_MockmMessageGroup_TestE10CreateTestEv
FN:474,_ZN7testing8internal15TestFactoryImplI32getPlatform_getPlatform_int_TestE10CreateTestEv
FNDA:1,_ZN7testing8internal15TestFactoryImplI32getPlatform_getPlatform_int_TestE10CreateTestEv
FN:474,_ZN7testing8internal15TestFactoryImplI23checkURLs_allRight_TestE10CreateTestEv
FNDA:1,_ZN7testing8internal15TestFactoryImplI23checkURLs_allRight_TestE10CreateTestEv
FN:474,_ZN7testing8internal15TestFactoryImplI23checkURLs_allFalse_TestE10CreateTestEv
FNDA:1,_ZN7testing8internal15TestFactoryImplI23checkURLs_allFalse_TestE10CreateTestEv
FN:474,_ZN7testing8internal15TestFactoryImplI24checkURLs_semiFalse_TestE10CreateTestEv
FNDA:1,_ZN7testing8internal15TestFactoryImplI24checkURLs_semiFalse_TestE10CreateTestEv
FN:495,_ZN7testing8internal12CodeLocationC2ERKNSt7__cxx1112basic_stringIcSt11char_traitsIcESaIcEEEi
FNDA:5,_ZN7testing8internal12CodeLocationC2ERKNSt7__cxx1112basic_stringIcSt11char_traitsIcESaIcEEEi
FN:508,_ZN7testing8internal19GetNotDefaultOrNullEPFvvES2_
FNDA:20,_ZN7testing8internal19GetNotDefaultOrNullEPFvvES2_
FN:523,_ZN7testing8internal16SuiteApiResolverINS_4TestEE19GetSetUpCaseOrSuiteEPKci
FNDA:5,_ZN7testing8internal16SuiteApiResolverINS_4TestEE19GetSetUpCaseOrSuiteEPKci
FN:544,_ZN7testing8internal16SuiteApiResolverINS_4TestEE22GetTearDownCaseOrSuiteEPKci
FNDA:5,_ZN7testing8internal16SuiteApiResolverINS_4TestEE22GetTearDownCaseOrSuiteEPKci
DA:456,0
DA:456,5
DA:463,5
DA:474,1
DA:474,1
DA:474,1
DA:474,1
DA:474,1
DA:495,5
DA:496,5
DA:508,20
DA:510,20
DA:523,5
DA:527,5
DA:529,5
DA:531,5
DA:534,0
DA:536,5
DA:544,5
DA:548,5
DA:550,5
DA:552,5
DA:555,0
DA:557,5
end_of_record
SF:/usr/include/c++/9/ext/type_traits.h
FN:152,_ZN9__gnu_cxx17__is_null_pointerIcEEbPT_
FNDA:0,_ZN9__gnu_cxx17__is_null_pointerIcEEbPT_
FN:152,_ZN9__gnu_cxx17__is_null_pointerIKcEEbPT_
FNDA:0,_ZN9__gnu_cxx17__is_null_pointerIKcEEbPT_
DA:152,0
DA:153,0
DA:152,0
DA:153,0
end_of_record
SF:/usr/local/include/gtest/gtest-matchers.h
FN:82,_ZN7testing19MatchResultListenerC2EPSo
FNDA:3,_ZN7testing19MatchResultListenerC2EPSo
FN:94,_ZN7testing19MatchResultListener6streamEv
FNDA:3,_ZN7testing19MatchResultListener6streamEv
FN:108,_ZN7testing19MatchResultListenerD2Ev
FNDA:3,_ZN7testing19MatchResultListenerD2Ev
FN:108,_ZN7testing19MatchResultListenerD0Ev
FNDA:0,_ZN7testing19MatchResultListenerD0Ev
FN:115,_ZN7testing25MatcherDescriberInterfaceD2Ev
FNDA:3,_ZN7testing25MatcherDescriberInterfaceD2Ev
FN:115,_ZN7testing25MatcherDescriberInterfaceD0Ev
FNDA:0,_ZN7testing25MatcherDescriberInterfaceD0Ev
FN:130,_ZNK7testing25MatcherDescriberInterface18DescribeNegationToEPSo
FNDA:0,_ZNK7testing25MatcherDescriberInterface18DescribeNegationToEPSo
FN:209,_ZN7testing8internal24DummyMatchResultListenerC2Ev
FNDA:3,_ZN7testing8internal24DummyMatchResultListenerC2Ev
FN:230,_ZN7testing8internal17SharedPayloadBase5UnrefEv
FNDA:0,_ZN7testing8internal17SharedPayloadBase5UnrefEv
FN:253,_ZNK7testing8internal11MatcherBaseIRKSt5tupleIJEEE15MatchAndExplainES5_PNS_19MatchResultListenerE
FNDA:3,_ZNK7testing8internal11MatcherBaseIRKSt5tupleIJEEE15MatchAndExplainES5_PNS_19MatchResultListenerE
FN:259,_ZNK7testing8internal11MatcherBaseIRKSt5tupleIJEEE7MatchesES5_
FNDA:3,_ZNK7testing8internal11MatcherBaseIRKSt5tupleIJEEE7MatchesES5_
FN:265,_ZNK7testing8internal11MatcherBaseIRKSt5tupleIJEEE10DescribeToEPSo
FNDA:0,_ZNK7testing8internal11MatcherBaseIRKSt5tupleIJEEE10DescribeToEPSo
FN:271,_ZNK7testing8internal11MatcherBaseIRKSt5tupleIJEEE18DescribeNegationToEPSo
FNDA:0,_ZNK7testing8internal11MatcherBaseIRKSt5tupleIJEEE18DescribeNegationToEPSo
FN:301,_ZN7testing8internal11MatcherBaseIRKSt5tupleIJEEEC2IRKNS0_15AnythingMatcherEvEEOT_
FNDA:3,_ZN7testing8internal11MatcherBaseIRKSt5tupleIJEEEC2IRKNS0_15AnythingMatcherEvEEOT_
FN:333,_ZN7testing8internal11MatcherBaseIRKSt5tupleIJEEED0Ev
FNDA:0,_ZN7testing8internal11MatcherBaseIRKSt5tupleIJEEED0Ev
FN:333,_ZN7testing8internal11MatcherBaseIRKSt5tupleIJEEED2Ev
FNDA:3,_ZN7testing8internal11MatcherBaseIRKSt5tupleIJEEED2Ev
FN:347,_ZNK7testing8internal11MatcherBaseIRKSt5tupleIJEEE8IsSharedEv
FNDA:3,_ZNK7testing8internal11MatcherBaseIRKSt5tupleIJEEE8IsSharedEv
FN:353,_ZN7testing8internal11MatcherBaseIRKSt5tupleIJEEE19MatchAndExplainImplINS6_11ValuePolicyINS0_15AnythingMatcherELb1EEEEEDTcldtclsrT_3Getfp_E15MatchAndExplainfp0_clptfp1_L_ZNS_19MatchResultListener6streamEvEEEERKS6_S5_PSC_
FNDA:3,_ZN7testing8internal11MatcherBaseIRKSt5tupleIJEEE19MatchAndExplainImplINS6_11ValuePolicyINS0_15AnythingMatcherELb1EEEEEDTcldtclsrT_3Getfp_E15MatchAndExplainfp0_clptfp1_L_ZNS_19MatchResultListener6streamEvEEEERKS6_S5_PSC_
FN:367,_ZN7testing8internal11MatcherBaseIRKSt5tupleIJEEE12DescribeImplINS6_11ValuePolicyINS0_15AnythingMatcherELb1EEEEEvRKS6_PSob
FNDA:0,_ZN7testing8internal11MatcherBaseIRKSt5tupleIJEEE12DescribeImplINS6_11ValuePolicyINS0_15AnythingMatcherELb1EEEEEvRKS6_PSob
FN:377,_ZN7testing8internal11MatcherBaseIRKSt5tupleIJEEE16GetDescriberImplINS6_11ValuePolicyINS0_15AnythingMatcherELb1EEEEEPKNS_25MatcherDescriberInterfaceERKS6_
FNDA:0,_ZN7testing8internal11MatcherBaseIRKSt5tupleIJEEE16GetDescriberImplINS6_11ValuePolicyINS0_15AnythingMatcherELb1EEEEEPKNS_25MatcherDescriberInterfaceERKS6_
FN:393,_ZN7testing8internal11MatcherBaseIRKSt5tupleIJEEE9GetVTableINS6_11ValuePolicyINS0_15AnythingMatcherELb1EEEEEPKNS6_6VTableEv
FNDA:3,_ZN7testing8internal11MatcherBaseIRKSt5tupleIJEEE9GetVTableINS6_11ValuePolicyINS0_15AnythingMatcherELb1EEEEEPKNS6_6VTableEv
FN:409,_ZN7testing8internal11MatcherBaseIRKSt5tupleIJEEE7DestroyEv
FNDA:3,_ZN7testing8internal11MatcherBaseIRKSt5tupleIJEEE7DestroyEv
FN:424,_ZN7testing8internal11MatcherBaseIRKSt5tupleIJEEE11ValuePolicyINS0_15AnythingMatcherELb1EE3GetERKS6_
FNDA:3,_ZN7testing8internal11MatcherBaseIRKSt5tupleIJEEE11ValuePolicyINS0_15AnythingMatcherELb1EE3GetERKS6_
FN:431,_ZN7testing8internal11MatcherBaseIRKSt5tupleIJEEE11ValuePolicyINS0_15AnythingMatcherELb1EE4InitERS6_S8_
FNDA:3,_ZN7testing8internal11MatcherBaseIRKSt5tupleIJEEE11ValuePolicyINS0_15AnythingMatcherELb1EE4InitERS6_S8_
FN:465,_ZN7testing8internal11MatcherBaseIRKSt5tupleIJEEE4InitIRKNS0_15AnythingMatcherEEEvOT_
FNDA:3,_ZN7testing8internal11MatcherBaseIRKSt5tupleIJEEE4InitIRKNS0_15AnythingMatcherEEEvOT_
FN:503,_ZN7testing7MatcherIRKSt5tupleIJEEEC2IRKNS_8internal15AnythingMatcherEvEEOT_
FNDA:3,_ZN7testing7MatcherIRKSt5tupleIJEEEC2IRKNS_8internal15AnythingMatcherEvEEOT_
DA:82,3
DA:94,3
DA:108,0
DA:109,0
DA:108,3
DA:109,3
DA:115,0
DA:115,3
DA:130,0
DA:131,0
DA:132,0
DA:133,0
DA:134,0
DA:209,3
DA:230,0
DA:253,3
DA:254,3
DA:255,3
DA:259,3
DA:260,3
DA:261,6
DA:265,0
DA:266,0
DA:267,0
DA:268,0
DA:271,0
DA:272,0
DA:273,0
DA:274,0
DA:301,3
DA:302,3
DA:303,3
DA:333,0
DA:333,3
DA:347,3
DA:348,3
DA:353,3
DA:356,3
DA:367,0
DA:369,0
DA:370,0
DA:372,0
DA:374,0
DA:377,0
DA:389,0
DA:393,3
DA:397,3
DA:409,3
DA:410,3
DA:411,0
DA:413,3
DA:424,3
DA:427,3
DA:429,3
DA:431,3
DA:432,3
DA:433,3
DA:465,3
DA:468,3
DA:469,3
DA:470,3
DA:503,3
end_of_record
SF:/usr/include/c++/9/bits/vector.tcc
FN:109,_ZNSt6vectorIN9sharedLib4SongESaIS1_EE12emplace_backIJNS0_3URLENS0_8PlatformEEEEvDpOT_
FNDA:6,_ZNSt6vectorIN9sharedLib4SongESaIS1_EE12emplace_backIJNS0_3URLENS0_8PlatformEEEEvDpOT_
FN:109,_ZNSt6vectorIN9sharedLib8PlaylistESaIS1_EE12emplace_backIJNS0_3URLENS0_8PlatformEEEEvDpOT_
FNDA:6,_ZNSt6vectorIN9sharedLib8PlaylistESaIS1_EE12emplace_backIJNS0_3URLENS0_8PlatformEEEEvDpOT_
FN:109,_ZNSt6vectorIN9sharedLib8PlatformESaIS1_EE12emplace_backIJS1_EEEvDpOT_
FNDA:1,_ZNSt6vectorIN9sharedLib8PlatformESaIS1_EE12emplace_backIJS1_EEEvDpOT_
FN:109,_ZNSt6vectorIN9sharedLib4SongESaIS1_EE12emplace_backIJNS0_3URLERNS0_8PlatformEEEEvDpOT_
FNDA:1,_ZNSt6vectorIN9sharedLib4SongESaIS1_EE12emplace_backIJNS0_3URLERNS0_8PlatformEEEEvDpOT_
FN:109,_ZNSt6vectorIN9sharedLib8PlaylistESaIS1_EE12emplace_backIJNS0_3URLERNS0_8PlatformEEEEvDpOT_
FNDA:1,_ZNSt6vectorIN9sharedLib8PlaylistESaIS1_EE12emplace_backIJNS0_3URLERNS0_8PlatformEEEEvDpOT_
FN:426,_ZNSt6vectorISt10shared_ptrIN7testing8internal15ExpectationBaseEESaIS4_EE17_M_realloc_insertIJRKS4_EEEvN9__gnu_cxx17__normal_iteratorIPS4_S6_EEDpOT_
FNDA:3,_ZNSt6vectorISt10shared_ptrIN7testing8internal15ExpectationBaseEESaIS4_EE17_M_realloc_insertIJRKS4_EEEvN9__gnu_cxx17__normal_iteratorIPS4_S6_EEDpOT_
FN:426,_ZNSt6vectorIN9sharedLib4SongESaIS1_EE17_M_realloc_insertIJNS0_3URLENS0_8PlatformEEEEvN9__gnu_cxx17__normal_iteratorIPS1_S3_EEDpOT_
FNDA:6,_ZNSt6vectorIN9sharedLib4SongESaIS1_EE17_M_realloc_insertIJNS0_3URLENS0_8PlatformEEEEvN9__gnu_cxx17__normal_iteratorIPS1_S3_EEDpOT_
FN:426,_ZNSt6vectorIN9sharedLib8PlaylistESaIS1_EE17_M_realloc_insertIJNS0_3URLENS0_8PlatformEEEEvN9__gnu_cxx17__normal_iteratorIPS1_S3_EEDpOT_
FNDA:6,_ZNSt6vectorIN9sharedLib8PlaylistESaIS1_EE17_M_realloc_insertIJNS0_3URLENS0_8PlatformEEEEvN9__gnu_cxx17__normal_iteratorIPS1_S3_EEDpOT_
FN:426,_ZNSt6vectorIN9sharedLib8PlatformESaIS1_EE17_M_realloc_insertIJS1_EEEvN9__gnu_cxx17__normal_iteratorIPS1_S3_EEDpOT_
FNDA:1,_ZNSt6vectorIN9sharedLib8PlatformESaIS1_EE17_M_realloc_insertIJS1_EEEvN9__gnu_cxx17__normal_iteratorIPS1_S3_EEDpOT_
FN:426,_ZNSt6vectorIN9sharedLib4SongESaIS1_EE17_M_realloc_insertIJNS0_3URLERNS0_8PlatformEEEEvN9__gnu_cxx17__normal_iteratorIPS1_S3_EEDpOT_
FNDA:1,_ZNSt6vectorIN9sharedLib4SongESaIS1_EE17_M_realloc_insertIJNS0_3URLERNS0_8PlatformEEEEvN9__gnu_cxx17__normal_iteratorIPS1_S3_EEDpOT_
FN:426,_ZNSt6vectorIN9sharedLib8PlaylistESaIS1_EE17_M_realloc_insertIJNS0_3URLERNS0_8PlatformEEEEvN9__gnu_cxx17__normal_iteratorIPS1_S3_EEDpOT_
FNDA:1,_ZNSt6vectorIN9sharedLib8PlaylistESaIS1_EE17_M_realloc_insertIJNS0_3URLERNS0_8PlatformEEEEvN9__gnu_cxx17__normal_iteratorIPS1_S3_EEDpOT_
DA:109,6
DA:112,6
DA:115,0
DA:117,0
DA:121,6
DA:125,6
DA:109,6
DA:112,6
DA:115,0
DA:117,0
DA:121,6
DA:125,6
DA:109,1
DA:112,1
DA:115,0
DA:117,0
DA:121,1
DA:125,1
DA:109,1
DA:112,1
DA:115,0
DA:117,0
DA:121,1
DA:125,1
DA:109,1
DA:112,1
DA:115,0
DA:117,0
DA:121,1
DA:125,1
DA:426,3
DA:435,3
DA:437,3
DA:438,3
DA:439,3
DA:440,3
DA:441,3
DA:449,3
DA:450,3
DA:456,3
DA:459,3
DA:461,3
DA:462,3
DA:464,3
DA:466,3
DA:467,3
DA:474,0
DA:475,0
DA:477,0
DA:481,0
DA:482,0
DA:485,0
DA:487,0
DA:488,0
DA:489,0
DA:491,0
DA:492,0
DA:493,0
DA:496,3
DA:498,0
DA:500,3
DA:501,3
DA:502,3
DA:503,3
DA:504,3
DA:505,3
DA:426,6
DA:435,6
DA:437,6
DA:438,6
DA:439,6
DA:440,6
DA:441,6
DA:449,6
DA:450,6
DA:456,6
DA:459,6
DA:461,6
DA:462,6
DA:464,6
DA:466,6
DA:467,6
DA:474,0
DA:475,0
DA:477,0
DA:481,0
DA:482,0
DA:485,0
DA:487,0
DA:488,0
DA:489,0
DA:491,0
DA:492,0
DA:493,0
DA:496,6
DA:498,0
DA:500,6
DA:501,6
DA:502,6
DA:503,6
DA:504,6
DA:505,6
DA:426,6
DA:435,6
DA:437,6
DA:438,6
DA:439,6
DA:440,6
DA:441,6
DA:449,6
DA:450,6
DA:456,6
DA:459,6
DA:461,6
DA:462,6
DA:464,6
DA:466,6
DA:467,6
DA:474,0
DA:475,0
DA:477,0
DA:481,0
DA:482,0
DA:485,0
DA:487,0
DA:488,0
DA:489,0
DA:491,0
DA:492,0
DA:493,0
DA:496,6
DA:498,0
DA:500,6
DA:501,6
DA:502,6
DA:503,6
DA:504,6
DA:505,6
DA:426,1
DA:435,1
DA:437,1
DA:438,1
DA:439,1
DA:440,1
DA:441,1
DA:449,1
DA:450,1
DA:456,1
DA:459,1
DA:461,1
DA:462,1
DA:464,1
DA:466,1
DA:467,1
DA:474,0
DA:475,0
DA:477,0
DA:481,0
DA:482,0
DA:485,0
DA:487,0
DA:488,0
DA:489,0
DA:491,0
DA:492,0
DA:493,0
DA:496,1
DA:498,0
DA:500,1
DA:501,1
DA:502,1
DA:503,1
DA:504,1
DA:505,1
DA:426,1
DA:435,1
DA:437,1
DA:438,1
DA:439,1
DA:440,1
DA:441,1
DA:449,1
DA:450,1
DA:456,1
DA:459,1
DA:461,1
DA:462,1
DA:464,1
DA:466,1
DA:467,1
DA:474,0
DA:475,0
DA:477,0
DA:481,0
DA:482,0
DA:485,0
DA:487,0
DA:488,0
DA:489,0
DA:491,0
DA:492,0
DA:493,0
DA:496,1
DA:498,0
DA:500,1
DA:501,1
DA:502,1
DA:503,1
DA:504,1
DA:505,1
DA:426,1
DA:435,1
DA:437,1
DA:438,1
DA:439,1
DA:440,1
DA:441,1
DA:449,1
DA:450,1
DA:456,1
DA:459,1
DA:461,1
DA:462,1
DA:464,1
DA:466,1
DA:467,1
DA:474,0
DA:475,0
DA:477,0
DA:481,0
DA:482,0
DA:485,0
DA:487,0
DA:488,0
DA:489,0
DA:491,0
DA:492,0
DA:493,0
DA:496,1
DA:498,0
DA:500,1
DA:501,1
DA:502,1
DA:503,1
DA:504,1
DA:505,1
end_of_record
SF:/usr/include/c++/9/bits/cpp_type_traits.h
FN:428,_ZSt12__miter_baseIPN9sharedLib8PlatformEET_S3_
FNDA:0,_ZSt12__miter_baseIPN9sharedLib8PlatformEET_S3_
DA:428,0
DA:429,0
end_of_record
SF:/usr/include/c++/9/bits/stl_iterator.h
FN:137,_ZNSt16reverse_iteratorIN9__gnu_cxx17__normal_iteratorIPKPKvSt6vectorIS3_SaIS3_EEEEEC2ES9_
FNDA:10,_ZNSt16reverse_iteratorIN9__gnu_cxx17__normal_iteratorIPKPKvSt6vectorIS3_SaIS3_EEEEEC2ES9_
FN:137,_ZNSt16reverse_iteratorIN9__gnu_cxx17__normal_iteratorIPKSt10shared_ptrIN7testing8internal15ExpectationBaseEESt6vectorIS6_SaIS6_EEEEEC2ESC_
FNDA:6,_ZNSt16reverse_iteratorIN9__gnu_cxx17__normal_iteratorIPKSt10shared_ptrIN7testing8internal15ExpectationBaseEESt6vectorIS6_SaIS6_EEEEEC2ESC_
FN:163,_ZNKSt16reverse_iteratorIN9__gnu_cxx17__normal_iteratorIPKPKvSt6vectorIS3_SaIS3_EEEEE4baseEv
FNDA:10,_ZNKSt16reverse_iteratorIN9__gnu_cxx17__normal_iteratorIPKPKvSt6vectorIS3_SaIS3_EEEEE4baseEv
FN:163,_ZNKSt16reverse_iteratorIN9__gnu_cxx17__normal_iteratorIPKSt10shared_ptrIN7testing8internal15ExpectationBaseEESt6vectorIS6_SaIS6_EEEEE4baseEv
FNDA:6,_ZNKSt16reverse_iteratorIN9__gnu_cxx17__normal_iteratorIPKSt10shared_ptrIN7testing8internal15ExpectationBaseEESt6vectorIS6_SaIS6_EEEEE4baseEv
FN:177,_ZNKSt16reverse_iteratorIN9__gnu_cxx17__normal_iteratorIPKPKvSt6vectorIS3_SaIS3_EEEEEdeEv
FNDA:0,_ZNKSt16reverse_iteratorIN9__gnu_cxx17__normal_iteratorIPKPKvSt6vectorIS3_SaIS3_EEEEEdeEv
FN:189,_ZNKSt16reverse_iteratorIN9__gnu_cxx17__normal_iteratorIPKSt10shared_ptrIN7testing8internal15ExpectationBaseEESt6vectorIS6_SaIS6_EEEEEptEv
FNDA:3,_ZNKSt16reverse_iteratorIN9__gnu_cxx17__normal_iteratorIPKSt10shared_ptrIN7testing8internal15ExpectationBaseEESt6vectorIS6_SaIS6_EEEEEptEv
FN:204,_ZNSt16reverse_iteratorIN9__gnu_cxx17__normal_iteratorIPKSt10shared_ptrIN7testing8internal15ExpectationBaseEESt6vectorIS6_SaIS6_EEEEEppEv
FNDA:0,_ZNSt16reverse_iteratorIN9__gnu_cxx17__normal_iteratorIPKSt10shared_ptrIN7testing8internal15ExpectationBaseEESt6vectorIS6_SaIS6_EEEEEppEv
FN:204,_ZNSt16reverse_iteratorIN9__gnu_cxx17__normal_iteratorIPKPKvSt6vectorIS3_SaIS3_EEEEEppEv
FNDA:0,_ZNSt16reverse_iteratorIN9__gnu_cxx17__normal_iteratorIPKPKvSt6vectorIS3_SaIS3_EEEEEppEv
FN:309,_ZNSt16reverse_iteratorIN9__gnu_cxx17__normal_iteratorIPKSt10shared_ptrIN7testing8internal15ExpectationBaseEESt6vectorIS6_SaIS6_EEEEE13_S_to_pointerISC_EES8_T_
FNDA:3,_ZNSt16reverse_iteratorIN9__gnu_cxx17__normal_iteratorIPKSt10shared_ptrIN7testing8internal15ExpectationBaseEESt6vectorIS6_SaIS6_EEEEE13_S_to_pointerISC_EES8_T_
FN:325,_ZSteqIN9__gnu_cxx17__normal_iteratorIPKPKvSt6vectorIS3_SaIS3_EEEEEbRKSt16reverse_iteratorIT_ESE_
FNDA:5,_ZSteqIN9__gnu_cxx17__normal_iteratorIPKPKvSt6vectorIS3_SaIS3_EEEEEbRKSt16reverse_iteratorIT_ESE_
FN:325,_ZSteqIN9__gnu_cxx17__normal_iteratorIPKSt10shared_ptrIN7testing8internal15ExpectationBaseEESt6vectorIS6_SaIS6_EEEEEbRKSt16reverse_iteratorIT_ESH_
FNDA:3,_ZSteqIN9__gnu_cxx17__normal_iteratorIPKSt10shared_ptrIN7testing8internal15ExpectationBaseEESt6vectorIS6_SaIS6_EEEEEbRKSt16reverse_iteratorIT_ESH_
FN:337,_ZStneIN9__gnu_cxx17__normal_iteratorIPKSt10shared_ptrIN7testing8internal15ExpectationBaseEESt6vectorIS6_SaIS6_EEEEEbRKSt16reverse_iteratorIT_ESH_
FNDA:3,_ZStneIN9__gnu_cxx17__normal_iteratorIPKSt10shared_ptrIN7testing8internal15ExpectationBaseEESt6vectorIS6_SaIS6_EEEEEbRKSt16reverse_iteratorIT_ESH_
FN:337,_ZStneIN9__gnu_cxx17__normal_iteratorIPKPKvSt6vectorIS3_SaIS3_EEEEEbRKSt16reverse_iteratorIT_ESE_
FNDA:5,_ZStneIN9__gnu_cxx17__normal_iteratorIPKPKvSt6vectorIS3_SaIS3_EEEEEbRKSt16reverse_iteratorIT_ESE_
FN:803,_ZN9__gnu_cxx17__normal_iteratorIPN9sharedLib8PlaylistESt6vectorIS2_SaIS2_EEEC2ERKS3_
FNDA:0,_ZN9__gnu_cxx17__normal_iteratorIPN9sharedLib8PlaylistESt6vectorIS2_SaIS2_EEEC2ERKS3_
FN:803,_ZN9__gnu_cxx17__normal_iteratorIPN9sharedLib4SongESt6vectorIS2_SaIS2_EEEC2ERKS3_
FNDA:0,_ZN9__gnu_cxx17__normal_iteratorIPN9sharedLib4SongESt6vectorIS2_SaIS2_EEEC2ERKS3_
FN:803,_ZN9__gnu_cxx17__normal_iteratorIPN9sharedLib8PlatformESt6vectorIS2_SaIS2_EEEC2ERKS3_
FNDA:0,_ZN9__gnu_cxx17__normal_iteratorIPN9sharedLib8PlatformESt6vectorIS2_SaIS2_EEEC2ERKS3_
FN:803,_ZN9__gnu_cxx17__normal_iteratorIPKSt10shared_ptrIN7testing8internal15ExpectationBaseEESt6vectorIS5_SaIS5_EEEC2ERKS7_
FNDA:6,_ZN9__gnu_cxx17__normal_iteratorIPKSt10shared_ptrIN7testing8internal15ExpectationBaseEESt6vectorIS5_SaIS5_EEEC2ERKS7_
FN:803,_ZN9__gnu_cxx17__normal_iteratorIPPKvSt6vectorIS2_SaIS2_EEEC2ERKS3_
FNDA:14,_ZN9__gnu_cxx17__normal_iteratorIPPKvSt6vectorIS2_SaIS2_EEEC2ERKS3_
FN:803,_ZN9__gnu_cxx17__normal_iteratorIPSt10shared_ptrIN7testing8internal15ExpectationBaseEESt6vectorIS5_SaIS5_EEEC2ERKS6_
FNDA:17,_ZN9__gnu_cxx17__normal_iteratorIPSt10shared_ptrIN7testing8internal15ExpectationBaseEESt6vectorIS5_SaIS5_EEEC2ERKS6_
FN:803,_ZN9__gnu_cxx17__normal_iteratorIPKPKvSt6vectorIS2_SaIS2_EEEC2ERKS4_
FNDA:10,_ZN9__gnu_cxx17__normal_iteratorIPKPKvSt6vectorIS2_SaIS2_EEEC2ERKS4_
FN:808,_ZN9__gnu_cxx17__normal_iteratorIPKPKvSt6vectorIS2_SaIS2_EEEC2IPS2_EERKNS0_IT_NS_11__enable_ifIXsrSt10__are_sameISB_SA_E7__valueES7_E6__typeEEE
FNDA:7,_ZN9__gnu_cxx17__normal_iteratorIPKPKvSt6vectorIS2_SaIS2_EEEC2IPS2_EERKNS0_IT_NS_11__enable_ifIXsrSt10__are_sameISB_SA_E7__valueES7_E6__typeEEE
FN:816,_ZNK9__gnu_cxx17__normal_iteratorIPKPKvSt6vectorIS2_SaIS2_EEEdeEv
FNDA:0,_ZNK9__gnu_cxx17__normal_iteratorIPKPKvSt6vectorIS2_SaIS2_EEEdeEv
FN:816,_ZNK9__gnu_cxx17__normal_iteratorIPN9sharedLib4SongESt6vectorIS2_SaIS2_EEEdeEv
FNDA:0,_ZNK9__gnu_cxx17__normal_iteratorIPN9sharedLib4SongESt6vectorIS2_SaIS2_EEEdeEv
FN:816,_ZNK9__gnu_cxx17__normal_iteratorIPN9sharedLib8PlaylistESt6vectorIS2_SaIS2_EEEdeEv
FNDA:0,_ZNK9__gnu_cxx17__normal_iteratorIPN9sharedLib8PlaylistESt6vectorIS2_SaIS2_EEEdeEv
FN:820,_ZNK9__gnu_cxx17__normal_iteratorIPN9sharedLib7MessageESt6vectorIS2_SaIS2_EEEptEv
FNDA:3,_ZNK9__gnu_cxx17__normal_iteratorIPN9sharedLib7MessageESt6vectorIS2_SaIS2_EEEptEv
FN:820,_ZNK9__gnu_cxx17__normal_iteratorIPKSt10shared_ptrIN7testing8internal15ExpectationBaseEESt6vectorIS5_SaIS5_EEEptEv
FNDA:6,_ZNK9__gnu_cxx17__normal_iteratorIPKSt10shared_ptrIN7testing8internal15ExpectationBaseEESt6vectorIS5_SaIS5_EEEptEv
FN:824,_ZN9__gnu_cxx17__normal_iteratorIPKPKvSt6vectorIS2_SaIS2_EEEppEv
FNDA:0,_ZN9__gnu_cxx17__normal_iteratorIPKPKvSt6vectorIS2_SaIS2_EEEppEv
FN:824,_ZN9__gnu_cxx17__normal_iteratorIPN9sharedLib8PlaylistESt6vectorIS2_SaIS2_EEEppEv
FNDA:0,_ZN9__gnu_cxx17__normal_iteratorIPN9sharedLib8PlaylistESt6vectorIS2_SaIS2_EEEppEv
FN:824,_ZN9__gnu_cxx17__normal_iteratorIPN9sharedLib4SongESt6vectorIS2_SaIS2_EEEppEv
FNDA:0,_ZN9__gnu_cxx17__normal_iteratorIPN9sharedLib4SongESt6vectorIS2_SaIS2_EEEppEv
FN:836,_ZN9__gnu_cxx17__normal_iteratorIPKSt10shared_ptrIN7testing8internal15ExpectationBaseEESt6vectorIS5_SaIS5_EEEmmEv
FNDA:3,_ZN9__gnu_cxx17__normal_iteratorIPKSt10shared_ptrIN7testing8internal15ExpectationBaseEESt6vectorIS5_SaIS5_EEEmmEv
FN:836,_ZN9__gnu_cxx17__normal_iteratorIPKPKvSt6vectorIS2_SaIS2_EEEmmEv
FNDA:0,_ZN9__gnu_cxx17__normal_iteratorIPKPKvSt6vectorIS2_SaIS2_EEEmmEv
FN:868,_ZNK9__gnu_cxx17__normal_iteratorIPN9sharedLib8PlaylistESt6vectorIS2_SaIS2_EEE4baseEv
FNDA:0,_ZNK9__gnu_cxx17__normal_iteratorIPN9sharedLib8PlaylistESt6vectorIS2_SaIS2_EEE4baseEv
FN:868,_ZNK9__gnu_cxx17__normal_iteratorIPN9sharedLib4SongESt6vectorIS2_SaIS2_EEE4baseEv
FNDA:0,_ZNK9__gnu_cxx17__normal_iteratorIPN9sharedLib4SongESt6vectorIS2_SaIS2_EEE4baseEv
FN:868,_ZNK9__gnu_cxx17__normal_iteratorIPN9sharedLib8PlatformESt6vectorIS2_SaIS2_EEE4baseEv
FNDA:0,_ZNK9__gnu_cxx17__normal_iteratorIPN9sharedLib8PlatformESt6vectorIS2_SaIS2_EEE4baseEv
FN:868,_ZNK9__gnu_cxx17__normal_iteratorIPPKvSt6vectorIS2_SaIS2_EEE4baseEv
FNDA:14,_ZNK9__gnu_cxx17__normal_iteratorIPPKvSt6vectorIS2_SaIS2_EEE4baseEv
FN:868,_ZNK9__gnu_cxx17__normal_iteratorIPKPKvSt6vectorIS2_SaIS2_EEE4baseEv
FNDA:17,_ZNK9__gnu_cxx17__normal_iteratorIPKPKvSt6vectorIS2_SaIS2_EEE4baseEv
FN:868,_ZNK9__gnu_cxx17__normal_iteratorIPSt10shared_ptrIN7testing8internal15ExpectationBaseEESt6vectorIS5_SaIS5_EEE4baseEv
FNDA:23,_ZNK9__gnu_cxx17__normal_iteratorIPSt10shared_ptrIN7testing8internal15ExpectationBaseEESt6vectorIS5_SaIS5_EEE4baseEv
FN:868,_ZNK9__gnu_cxx17__normal_iteratorIPKSt10shared_ptrIN7testing8internal15ExpectationBaseEESt6vectorIS5_SaIS5_EEE4baseEv
FNDA:13,_ZNK9__gnu_cxx17__normal_iteratorIPKSt10shared_ptrIN7testing8internal15ExpectationBaseEESt6vectorIS5_SaIS5_EEE4baseEv
FN:890,_ZN9__gnu_cxxeqIPKPKvSt6vectorIS2_SaIS2_EEEEbRKNS_17__normal_iteratorIT_T0_EESD_
FNDA:5,_ZN9__gnu_cxxeqIPKPKvSt6vectorIS2_SaIS2_EEEEbRKNS_17__normal_iteratorIT_T0_EESD_
FN:890,_ZN9__gnu_cxxeqIPKSt10shared_ptrIN7testing8internal15ExpectationBaseEESt6vectorIS5_SaIS5_EEEEbRKNS_17__normal_iteratorIT_T0_EESG_
FNDA:3,_ZN9__gnu_cxxeqIPKSt10shared_ptrIN7testing8internal15ExpectationBaseEESt6vectorIS5_SaIS5_EEEEbRKNS_17__normal_iteratorIT_T0_EESG_
FN:897,_ZN9__gnu_cxxneIPKPKvPS2_St6vectorIS2_SaIS2_EEEEbRKNS_17__normal_iteratorIT_T1_EERKNS9_IT0_SB_EE
FNDA:7,_ZN9__gnu_cxxneIPKPKvPS2_St6vectorIS2_SaIS2_EEEEbRKNS_17__normal_iteratorIT_T1_EERKNS9_IT0_SB_EE
FN:904,_ZN9__gnu_cxxneIPN9sharedLib8PlaylistESt6vectorIS2_SaIS2_EEEEbRKNS_17__normal_iteratorIT_T0_EESC_
FNDA:0,_ZN9__gnu_cxxneIPN9sharedLib8PlaylistESt6vectorIS2_SaIS2_EEEEbRKNS_17__normal_iteratorIT_T0_EESC_
FN:904,_ZN9__gnu_cxxneIPN9sharedLib4SongESt6vectorIS2_SaIS2_EEEEbRKNS_17__normal_iteratorIT_T0_EESC_
FNDA:0,_ZN9__gnu_cxxneIPN9sharedLib4SongESt6vectorIS2_SaIS2_EEEEbRKNS_17__normal_iteratorIT_T0_EESC_
FN:986,_ZN9__gnu_cxxmiIPN9sharedLib8PlatformESt6vectorIS2_SaIS2_EEEENS_17__normal_iteratorIT_T0_E15difference_typeERKSA_SD_
FNDA:1,_ZN9__gnu_cxxmiIPN9sharedLib8PlatformESt6vectorIS2_SaIS2_EEEENS_17__normal_iteratorIT_T0_E15difference_typeERKSA_SD_
FN:986,_ZN9__gnu_cxxmiIPN9sharedLib4SongESt6vectorIS2_SaIS2_EEEENS_17__normal_iteratorIT_T0_E15difference_typeERKSA_SD_
FNDA:13,_ZN9__gnu_cxxmiIPN9sharedLib4SongESt6vectorIS2_SaIS2_EEEENS_17__normal_iteratorIT_T0_E15difference_typeERKSA_SD_
FN:986,_ZN9__gnu_cxxmiIPSt10shared_ptrIN7testing8internal15ExpectationBaseEESt6vectorIS5_SaIS5_EEEENS_17__normal_iteratorIT_T0_E15difference_typeERKSD_SG_
FNDA:3,_ZN9__gnu_cxxmiIPSt10shared_ptrIN7testing8internal15ExpectationBaseEESt6vectorIS5_SaIS5_EEEENS_17__normal_iteratorIT_T0_E15difference_typeERKSD_SG_
FN:986,_ZN9__gnu_cxxmiIPN9sharedLib8PlaylistESt6vectorIS2_SaIS2_EEEENS_17__normal_iteratorIT_T0_E15difference_typeERKSA_SD_
FNDA:13,_ZN9__gnu_cxxmiIPN9sharedLib8PlaylistESt6vectorIS2_SaIS2_EEEENS_17__normal_iteratorIT_T0_E15difference_typeERKSA_SD_
FN:1054,_ZNSt13move_iteratorIPN9sharedLib8PlaylistEEC2ES2_
FNDA:0,_ZNSt13move_iteratorIPN9sharedLib8PlaylistEEC2ES2_
FN:1054,_ZNSt13move_iteratorIPSt10shared_ptrIN7testing8internal15ExpectationBaseEEEC2ES5_
FNDA:0,_ZNSt13move_iteratorIPSt10shared_ptrIN7testing8internal15ExpectationBaseEEEC2ES5_
FN:1054,_ZNSt13move_iteratorIPN9sharedLib4SongEEC2ES2_
FNDA:0,_ZNSt13move_iteratorIPN9sharedLib4SongEEC2ES2_
FN:1054,_ZNSt13move_iteratorIPN9sharedLib8PlatformEEC2ES2_
FNDA:0,_ZNSt13move_iteratorIPN9sharedLib8PlatformEEC2ES2_
FN:1063,_ZNKSt13move_iteratorIPN9sharedLib8PlatformEE4baseEv
FNDA:0,_ZNKSt13move_iteratorIPN9sharedLib8PlatformEE4baseEv
FN:1063,_ZNKSt13move_iteratorIPSt10shared_ptrIN7testing8internal15ExpectationBaseEEE4baseEv
FNDA:0,_ZNKSt13move_iteratorIPSt10shared_ptrIN7testing8internal15ExpectationBaseEEE4baseEv
FN:1063,_ZNKSt13move_iteratorIPN9sharedLib8PlaylistEE4baseEv
FNDA:0,_ZNKSt13move_iteratorIPN9sharedLib8PlaylistEE4baseEv
FN:1063,_ZNKSt13move_iteratorIPN9sharedLib4SongEE4baseEv
FNDA:0,_ZNKSt13move_iteratorIPN9sharedLib4SongEE4baseEv
FN:1067,_ZNKSt13move_iteratorIPSt10shared_ptrIN7testing8internal15ExpectationBaseEEEdeEv
FNDA:0,_ZNKSt13move_iteratorIPSt10shared_ptrIN7testing8internal15ExpectationBaseEEEdeEv
FN:1067,_ZNKSt13move_iteratorIPN9sharedLib4SongEEdeEv
FNDA:0,_ZNKSt13move_iteratorIPN9sharedLib4SongEEdeEv
FN:1067,_ZNKSt13move_iteratorIPN9sharedLib8PlaylistEEdeEv
FNDA:0,_ZNKSt13move_iteratorIPN9sharedLib8PlaylistEEdeEv
FN:1075,_ZNSt13move_iteratorIPN9sharedLib8PlaylistEEppEv
FNDA:0,_ZNSt13move_iteratorIPN9sharedLib8PlaylistEEppEv
FN:1075,_ZNSt13move_iteratorIPSt10shared_ptrIN7testing8internal15ExpectationBaseEEEppEv
FNDA:0,_ZNSt13move_iteratorIPSt10shared_ptrIN7testing8internal15ExpectationBaseEEEppEv
FN:1075,_ZNSt13move_iteratorIPN9sharedLib4SongEEppEv
FNDA:0,_ZNSt13move_iteratorIPN9sharedLib4SongEEppEv
FN:1142,_ZSteqIPN9sharedLib4SongEEbRKSt13move_iteratorIT_ES7_
FNDA:0,_ZSteqIPN9sharedLib4SongEEbRKSt13move_iteratorIT_ES7_
FN:1142,_ZSteqIPN9sharedLib8PlaylistEEbRKSt13move_iteratorIT_ES7_
FNDA:0,_ZSteqIPN9sharedLib8PlaylistEEbRKSt13move_iteratorIT_ES7_
FN:1142,_ZSteqIPSt10shared_ptrIN7testing8internal15ExpectationBaseEEEbRKSt13move_iteratorIT_ESA_
FNDA:0,_ZSteqIPSt10shared_ptrIN7testing8internal15ExpectationBaseEEEbRKSt13move_iteratorIT_ESA_
FN:1154,_ZStneIPSt10shared_ptrIN7testing8internal15ExpectationBaseEEEbRKSt13move_iteratorIT_ESA_
FNDA:0,_ZStneIPSt10shared_ptrIN7testing8internal15ExpectationBaseEEEbRKSt13move_iteratorIT_ESA_
FN:1154,_ZStneIPN9sharedLib4SongEEbRKSt13move_iteratorIT_ES7_
FNDA:0,_ZStneIPN9sharedLib4SongEEbRKSt13move_iteratorIT_ES7_
FN:1154,_ZStneIPN9sharedLib8PlaylistEEbRKSt13move_iteratorIT_ES7_
FNDA:0,_ZStneIPN9sharedLib8PlaylistEEbRKSt13move_iteratorIT_ES7_
FN:1239,_ZSt32__make_move_if_noexcept_iteratorIN9sharedLib8PlaylistESt13move_iteratorIPS1_EET0_PT_
FNDA:0,_ZSt32__make_move_if_noexcept_iteratorIN9sharedLib8PlaylistESt13move_iteratorIPS1_EET0_PT_
FN:1239,_ZSt32__make_move_if_noexcept_iteratorIN9sharedLib4SongESt13move_iteratorIPS1_EET0_PT_
FNDA:0,_ZSt32__make_move_if_noexcept_iteratorIN9sharedLib4SongESt13move_iteratorIPS1_EET0_PT_
FN:1239,_ZSt32__make_move_if_noexcept_iteratorIN9sharedLib8PlatformESt13move_iteratorIPS1_EET0_PT_
FNDA:0,_ZSt32__make_move_if_noexcept_iteratorIN9sharedLib8PlatformESt13move_iteratorIPS1_EET0_PT_
FN:1239,_ZSt32__make_move_if_noexcept_iteratorISt10shared_ptrIN7testing8internal15ExpectationBaseEESt13move_iteratorIPS4_EET0_PT_
FNDA:0,_ZSt32__make_move_if_noexcept_iteratorISt10shared_ptrIN7testing8internal15ExpectationBaseEESt13move_iteratorIPS4_EET0_PT_
FN:1259,_ZSt12__miter_baseIPN9sharedLib8PlatformEEDTcl12__miter_basecldtfp_4baseEEESt13move_iteratorIT_E
FNDA:0,_ZSt12__miter_baseIPN9sharedLib8PlatformEEDTcl12__miter_basecldtfp_4baseEEESt13move_iteratorIT_E
DA:137,10
DA:137,6
DA:163,10
DA:164,10
DA:163,6
DA:164,6
DA:177,0
DA:179,0
DA:180,0
DA:189,3
DA:193,3
DA:194,3
DA:195,3
DA:204,0
DA:206,0
DA:207,0
DA:204,0
DA:206,0
DA:207,0
DA:309,3
DA:310,3
DA:325,5
DA:327,5
DA:325,3
DA:327,3
DA:337,5
DA:339,5
DA:337,3
DA:339,3
DA:803,10
DA:804,10
DA:803,6
DA:804,6
DA:803,17
DA:804,17
DA:803,14
DA:804,14
DA:803,0
DA:804,0
DA:803,0
DA:804,0
DA:803,0
DA:804,0
DA:808,7
DA:812,7
DA:816,0
DA:817,0
DA:816,0
DA:817,0
DA:816,0
DA:817,0
DA:820,6
DA:821,6
DA:820,3
DA:821,3
DA:824,0
DA:826,0
DA:827,0
DA:824,0
DA:826,0
DA:827,0
DA:824,0
DA:826,0
DA:827,0
DA:836,0
DA:838,0
DA:839,0
DA:836,3
DA:838,3
DA:839,3
DA:868,13
DA:869,13
DA:868,23
DA:869,23
DA:868,17
DA:869,17
DA:868,14
DA:869,14
DA:868,0
DA:869,0
DA:868,0
DA:869,0
DA:868,0
DA:869,0
DA:890,5
DA:893,5
DA:890,3
DA:893,3
DA:897,7
DA:900,7
DA:904,0
DA:907,0
DA:904,0
DA:907,0
DA:986,3
DA:989,3
DA:986,1
DA:989,1
DA:986,13
DA:989,13
DA:986,13
DA:989,13
DA:1054,0
DA:1055,0
DA:1054,0
DA:1055,0
DA:1054,0
DA:1055,0
DA:1054,0
DA:1055,0
DA:1063,0
DA:1064,0
DA:1063,0
DA:1064,0
DA:1063,0
DA:1064,0
DA:1063,0
DA:1064,0
DA:1067,0
DA:1068,0
DA:1067,0
DA:1068,0
DA:1067,0
DA:1068,0
DA:1075,0
DA:1077,0
DA:1078,0
DA:1075,0
DA:1077,0
DA:1078,0
DA:1075,0
DA:1077,0
DA:1078,0
DA:1142,0
DA:1144,0
DA:1142,0
DA:1144,0
DA:1142,0
DA:1144,0
DA:1154,0
DA:1156,0
DA:1154,0
DA:1156,0
DA:1154,0
DA:1156,0
DA:1239,0
DA:1240,0
DA:1239,0
DA:1240,0
DA:1239,0
DA:1240,0
DA:1239,0
DA:1240,0
DA:1259,0
DA:1261,0
end_of_record
SF:/usr/include/c++/9/bits/std_function.h
FN:87,_ZNSt9_Any_data9_M_accessEv
FNDA:0,_ZNSt9_Any_data9_M_accessEv
FN:88,_ZNKSt9_Any_data9_M_accessEv
FNDA:0,_ZNKSt9_Any_data9_M_accessEv
FN:92,_ZNSt9_Any_data9_M_accessIPKSt9type_infoEERT_v
FNDA:0,_ZNSt9_Any_data9_M_accessIPKSt9type_infoEERT_v
FN:92,_ZNSt9_Any_data9_M_accessIPZN36mMessageGroup_MockmMessageGroup_Test8TestBodyEvEUlRKN9__gnu_cxx17__normal_iteratorIPN9sharedLib7MessageESt6vectorIS5_SaIS5_EEEESC_E_EERT_v
FNDA:0,_ZNSt9_Any_data9_M_accessIPZN36mMessageGroup_MockmMessageGroup_Test8TestBodyEvEUlRKN9__gnu_cxx17__normal_iteratorIPN9sharedLib7MessageESt6vectorIS5_SaIS5_EEEESC_E_EERT_v
FN:92,_ZNSt9_Any_data9_M_accessIZN36mMessageGroup_MockmMessageGroup_Test8TestBodyEvEUlRKN9__gnu_cxx17__normal_iteratorIPN9sharedLib7MessageESt6vectorIS5_SaIS5_EEEESC_E_EERT_v
FNDA:2,_ZNSt9_Any_data9_M_accessIZN36mMessageGroup_MockmMessageGroup_Test8TestBodyEvEUlRKN9__gnu_cxx17__normal_iteratorIPN9sharedLib7MessageESt6vectorIS5_SaIS5_EEEESC_E_EERT_v
FN:97,_ZNKSt9_Any_data9_M_accessIZN36mMessageGroup_MockmMessageGroup_Test8TestBodyEvEUlRKN9__gnu_cxx17__normal_iteratorIPN9sharedLib7MessageESt6vectorIS5_SaIS5_EEEESC_E_EERKT_v
FNDA:4,_ZNKSt9_Any_data9_M_accessIZN36mMessageGroup_MockmMessageGroup_Test8TestBodyEvEUlRKN9__gnu_cxx17__normal_iteratorIPN9sharedLib7MessageESt6vectorIS5_SaIS5_EEEESC_E_EERKT_v
FN:151,_ZNSt14_Function_base13_Base_managerIZN36mMessageGroup_MockmMessageGroup_Test8TestBodyEvEUlRKN9__gnu_cxx17__normal_iteratorIPN9sharedLib7MessageESt6vectorIS5_SaIS5_EEEESC_E_E14_M_get_pointerERKSt9_Any_data
FNDA:3,_ZNSt14_Function_base13_Base_managerIZN36mMessageGroup_MockmMessageGroup_Test8TestBodyEvEUlRKN9__gnu_cxx17__normal_iteratorIPN9sharedLib7MessageESt6vectorIS5_SaIS5_EEEESC_E_E14_M_get_pointerERKSt9_Any_data
FN:165,_ZNSt14_Function_base13_Base_managerIZN36mMessageGroup_MockmMessageGroup_Test8TestBodyEvEUlRKN9__gnu_cxx17__normal_iteratorIPN9sharedLib7MessageESt6vectorIS5_SaIS5_EEEESC_E_E8_M_cloneERSt9_Any_dataRKSF_St17integral_constantIbLb1EE
FNDA:1,_ZNSt14_Function_base13_Base_managerIZN36mMessageGroup_MockmMessageGroup_Test8TestBodyEvEUlRKN9__gnu_cxx17__normal_iteratorIPN9sharedLib7MessageESt6vectorIS5_SaIS5_EEEESC_E_E8_M_cloneERSt9_Any_dataRKSF_St17integral_constantIbLb1EE
FN:182,_ZNSt14_Function_base13_Base_managerIZN36mMessageGroup_MockmMessageGroup_Test8TestBodyEvEUlRKN9__gnu_cxx17__normal_iteratorIPN9sharedLib7MessageESt6vectorIS5_SaIS5_EEEESC_E_E10_M_destroyERSt9_Any_dataSt17integral_constantIbLb1EE
FNDA:2,_ZNSt14_Function_base13_Base_managerIZN36mMessageGroup_MockmMessageGroup_Test8TestBodyEvEUlRKN9__gnu_cxx17__normal_iteratorIPN9sharedLib7MessageESt6vectorIS5_SaIS5_EEEESC_E_E10_M_destroyERSt9_Any_dataSt17integral_constantIbLb1EE
FN:196,_ZNSt14_Function_base13_Base_managerIZN36mMessageGroup_MockmMessageGroup_Test8TestBodyEvEUlRKN9__gnu_cxx17__normal_iteratorIPN9sharedLib7MessageESt6vectorIS5_SaIS5_EEEESC_E_E10_M_managerERSt9_Any_dataRKSF_St18_Manager_operation
FNDA:3,_ZNSt14_Function_base13_Base_managerIZN36mMessageGroup_MockmMessageGroup_Test8TestBodyEvEUlRKN9__gnu_cxx17__normal_iteratorIPN9sharedLib7MessageESt6vectorIS5_SaIS5_EEEESC_E_E10_M_managerERSt9_Any_dataRKSF_St18_Manager_operation
FN:222,_ZNSt14_Function_base13_Base_managerIZN36mMessageGroup_MockmMessageGroup_Test8TestBodyEvEUlRKN9__gnu_cxx17__normal_iteratorIPN9sharedLib7MessageESt6vectorIS5_SaIS5_EEEESC_E_E15_M_init_functorERSt9_Any_dataOSD_
FNDA:1,_ZNSt14_Function_base13_Base_managerIZN36mMessageGroup_MockmMessageGroup_Test8TestBodyEvEUlRKN9__gnu_cxx17__normal_iteratorIPN9sharedLib7MessageESt6vectorIS5_SaIS5_EEEESC_E_E15_M_init_functorERSt9_Any_dataOSD_
FN:242,_ZNSt14_Function_base13_Base_managerIZN36mMessageGroup_MockmMessageGroup_Test8TestBodyEvEUlRKN9__gnu_cxx17__normal_iteratorIPN9sharedLib7MessageESt6vectorIS5_SaIS5_EEEESC_E_E21_M_not_empty_functionISD_EEbRKT_
FNDA:1,_ZNSt14_Function_base13_Base_managerIZN36mMessageGroup_MockmMessageGroup_Test8TestBodyEvEUlRKN9__gnu_cxx17__normal_iteratorIPN9sharedLib7MessageESt6vectorIS5_SaIS5_EEEESC_E_E21_M_not_empty_functionISD_EEbRKT_
FN:247,_ZNSt14_Function_base13_Base_managerIZN36mMessageGroup_MockmMessageGroup_Test8TestBodyEvEUlRKN9__gnu_cxx17__normal_iteratorIPN9sharedLib7MessageESt6vectorIS5_SaIS5_EEEESC_E_E15_M_init_functorERSt9_Any_dataOSD_St17integral_constantIbLb1EE
FNDA:1,_ZNSt14_Function_base13_Base_managerIZN36mMessageGroup_MockmMessageGroup_Test8TestBodyEvEUlRKN9__gnu_cxx17__normal_iteratorIPN9sharedLib7MessageESt6vectorIS5_SaIS5_EEEESC_E_E15_M_init_functorERSt9_Any_dataOSD_St17integral_constantIbLb1EE
FN:255,_ZNSt14_Function_baseC2Ev
FNDA:0,_ZNSt14_Function_baseC2Ev
FN:257,_ZNSt14_Function_baseD2Ev
FNDA:0,_ZNSt14_Function_baseD2Ev
FN:263,_ZNKSt14_Function_base8_M_emptyEv
FNDA:0,_ZNKSt14_Function_base8_M_emptyEv
FN:298,_ZNSt17_Function_handlerIFvRKN9__gnu_cxx17__normal_iteratorIPN9sharedLib7MessageESt6vectorIS3_SaIS3_EEEESA_EZN36mMessageGroup_MockmMessageGroup_Test8TestBodyEvEUlSA_SA_E_E9_M_invokeERKSt9_Any_dataSA_SA_
FNDA:3,_ZNSt17_Function_handlerIFvRKN9__gnu_cxx17__normal_iteratorIPN9sharedLib7MessageESt6vectorIS3_SaIS3_EEEESA_EZN36mMessageGroup_MockmMessageGroup_Test8TestBodyEvEUlSA_SA_E_E9_M_invokeERKSt9_Any_dataSA_SA_
FN:396,_ZNSt8functionIFvvEEC2Ev
FNDA:3,_ZNSt8functionIFvvEEC2Ev
FN:564,_ZNKSt8functionIFvvEEcvbEv
FNDA:3,_ZNKSt8functionIFvvEEcvbEv
FN:653,_ZNSt8functionIFvvEEC2ERKS1_
FNDA:0,_ZNSt8functionIFvvEEC2ERKS1_
FN:667,_ZNSt8functionIFvRKN9__gnu_cxx17__normal_iteratorIPN9sharedLib7MessageESt6vectorIS3_SaIS3_EEEESA_EEC2IZN36mMessageGroup_MockmMessageGroup_Test8TestBodyEvEUlSA_SA_E_vvEET_
FNDA:1,_ZNSt8functionIFvRKN9__gnu_cxx17__normal_iteratorIPN9sharedLib7MessageESt6vectorIS3_SaIS3_EEEESA_EEC2IZN36mMessageGroup_MockmMessageGroup_Test8TestBodyEvEUlSA_SA_E_vvEET_
FN:683,_ZNKSt8functionIFvvEEclEv
FNDA:0,_ZNKSt8functionIFvvEEclEv
FN:746,_ZSteqIvJEEbRKSt8functionIFT_DpT0_EEDn
FNDA:3,_ZSteqIvJEEbRKSt8functionIFT_DpT0_EEDn
DA:87,0
DA:88,0
DA:92,2
DA:93,2
DA:92,0
DA:93,0
DA:92,0
DA:93,0
DA:97,4
DA:98,4
DA:151,3
DA:155,3
DA:156,3
DA:165,1
DA:167,1
DA:168,1
DA:182,2
DA:184,2
DA:185,2
DA:196,3
DA:199,3
DA:202,0
DA:203,0
DA:204,0
DA:206,0
DA:207,0
DA:208,0
DA:210,1
DA:211,1
DA:212,1
DA:214,2
DA:215,2
DA:216,2
DA:218,3
DA:222,1
DA:223,1
DA:242,1
DA:243,1
DA:247,1
DA:248,1
DA:255,0
DA:257,0
DA:258,0
DA:259,0
DA:260,0
DA:261,0
DA:263,0
DA:298,3
DA:300,6
DA:301,3
DA:302,3
DA:396,3
DA:397,3
DA:564,3
DA:565,3
DA:653,0
DA:655,0
DA:657,0
DA:659,0
DA:660,0
DA:661,0
DA:663,0
DA:667,1
DA:669,1
DA:673,1
DA:675,1
DA:676,1
DA:677,1
DA:679,1
DA:683,0
DA:686,0
DA:687,0
DA:688,0
DA:746,3
DA:747,3
end_of_record
TN:Musicial_test
SF:/home/aint/park/tempMusicial/Musicial/qt/lib/shared.cpp
FN:5,_ZN9webClient11sendMessageERKNSt7__cxx1112basic_stringIcSt11char_traitsIcESaIcEEES7_S7_RKN9sharedLib7MessageERKSt8functionIFvSB_EE
FNDA:2,_ZN9webClient11sendMessageERKNSt7__cxx1112basic_stringIcSt11char_traitsIcESaIcEEES7_S7_RKN9sharedLib7MessageERKSt8functionIFvSB_EE
DA:5,2
DA:8,2
DA:9,2
end_of_record
SF:/usr/include/c++/9/iostream
end_of_record
TN:Musicial_test
SF:/home/aint/park/tempMusicial/Musicial/qt/lib/shared_lib.h
end_of_record
SF:/home/aint/park/tempMusicial/Musicial/qt/lib/mainlib.cpp
FN:6,_ZN6client12MessageGroup7receiveERKN9sharedLib7MessageE
FNDA:0,_ZN6client12MessageGroup7receiveERKN9sharedLib7MessageE
FN:13,_ZN6client12MessageGroup14receiveMessageERKN9sharedLib7MessageE
FNDA:0,_ZN6client12MessageGroup14receiveMessageERKN9sharedLib7MessageE
FN:19,_ZN6client12MessageGroup10receiveNetERKN9sharedLib7MessageE
FNDA:1,_ZN6client12MessageGroup10receiveNetERKN9sharedLib7MessageE
FN:27,_ZN6client12MessageGroup4sendEv
FNDA:0,_ZN6client12MessageGroup4sendEv
FN:31,_ZN6client12MessageGroup4sendERKSt8functionIFvRKN9__gnu_cxx17__normal_iteratorIPN9sharedLib7MessageESt6vectorIS5_SaIS5_EEEESC_EE
FNDA:1,_ZN6client12MessageGroup4sendERKSt8functionIFvRKN9__gnu_cxx17__normal_iteratorIPN9sharedLib7MessageESt6vectorIS5_SaIS5_EEEESC_EE
FN:37,_ZN6client12MessageGroup7sendNetEv
FNDA:2,_ZN6client12MessageGroup7sendNetEv
FN:49,_ZZN6client12MessageGroup7sendNetEvENKUlRKN9sharedLib7MessageEE_clES4_
FNDA:0,_ZZN6client12MessageGroup7sendNetEvENKUlRKN9sharedLib7MessageEE_clES4_
FN:52,_ZZN6client12MessageGroup7sendNetEvENKUlRKN9sharedLib7MessageEE0_clES4_
FNDA:0,_ZZN6client12MessageGroup7sendNetEvENKUlRKN9sharedLib7MessageEE0_clES4_
FN:57,_ZN6client12MessageGroupC2ERKN9sharedLib7MessageE
FNDA:0,_ZN6client12MessageGroupC2ERKN9sharedLib7MessageE
FN:61,_ZN6client12MessageGroupC2ERKSt6vectorIN9sharedLib7MessageESaIS3_EE
FNDA:0,_ZN6client12MessageGroupC2ERKSt6vectorIN9sharedLib7MessageESaIS3_EE
FN:65,_ZN6client12MessageGroupC2ERKNSt7__cxx1112basic_stringIcSt11char_traitsIcESaIcEEEmRKN9sharedLib8PlatformERKSt6vectorINS9_8PlaylistESaISE_EERKSD_INS9_4SongESaISJ_EERKSD_ISA_SaISA_EE
FNDA:1,_ZN6client12MessageGroupC2ERKNSt7__cxx1112basic_stringIcSt11char_traitsIcESaIcEEEmRKN9sharedLib8PlatformERKSt6vectorINS9_8PlaylistESaISE_EERKSD_INS9_4SongESaISJ_EERKSD_ISA_SaISA_EE
FN:86,_ZN6client11getPlatformB5cxx11ERKN9sharedLib8PlatformE
FNDA:3,_ZN6client11getPlatformB5cxx11ERKN9sharedLib8PlatformE
DA:6,0
DA:7,0
DA:8,0
DA:10,0
DA:13,0
DA:14,0
DA:15,0
DA:16,0
DA:19,1
DA:20,1
DA:21,1
DA:22,1
DA:24,1
DA:27,0
DA:28,0
DA:31,1
DA:33,1
DA:34,1
DA:37,2
DA:38,2
DA:44,4
DA:45,2
DA:47,2
DA:48,2
DA:49,2
DA:51,0
DA:52,0
DA:54,2
DA:57,0
DA:58,0
DA:59,0
DA:61,0
DA:62,0
DA:63,0
DA:65,1
DA:69,1
DA:70,2
DA:71,1
DA:72,1
DA:74,1
DA:75,1
DA:76,1
DA:77,1
DA:78,1
DA:79,1
DA:80,1
DA:83,1
DA:84,1
DA:86,3
DA:87,3
DA:88,1
DA:89,1
DA:91,1
DA:92,1
DA:94,1
DA:95,1
end_of_record
SF:/usr/include/c++/9/bits/basic_string.tcc
FN:206,_ZNSt7__cxx1112basic_stringIcSt11char_traitsIcESaIcEE12_M_constructIPcEEvT_S7_St20forward_iterator_tag
FNDA:0,_ZNSt7__cxx1112basic_stringIcSt11char_traitsIcESaIcEE12_M_constructIPcEEvT_S7_St20forward_iterator_tag
FN:206,_ZNSt7__cxx1112basic_stringIcSt11char_traitsIcESaIcEE12_M_constructIPKcEEvT_S8_St20forward_iterator_tag
FNDA:0,_ZNSt7__cxx1112basic_stringIcSt11char_traitsIcESaIcEE12_M_constructIPKcEEvT_S8_St20forward_iterator_tag
DA:206,0
DA:211,0
DA:212,0
DA:215,0
DA:217,0
DA:219,0
DA:220,0
DA:225,0
DA:226,0
DA:228,0
DA:229,0
DA:232,0
DA:233,0
DA:206,0
DA:211,0
DA:212,0
DA:215,0
DA:217,0
DA:219,0
DA:220,0
DA:225,0
DA:226,0
DA:228,0
DA:229,0
DA:232,0
DA:233,0
end_of_record
SF:/usr/include/c++/9/bits/stl_uninitialized.h
FN:76,_ZNSt20__uninitialized_copyILb0EE13__uninit_copyISt13move_iteratorIPN9sharedLib7MessageEES5_EET0_T_S8_S7_
FNDA:0,_ZNSt20__uninitialized_copyILb0EE13__uninit_copyISt13move_iteratorIPN9sharedLib7MessageEES5_EET0_T_S8_S7_
FN:76,_ZNSt20__uninitialized_copyILb0EE13__uninit_copyIPN9sharedLib7MessageES4_EET0_T_S6_S5_
FNDA:0,_ZNSt20__uninitialized_copyILb0EE13__uninit_copyIPN9sharedLib7MessageES4_EET0_T_S6_S5_
FN:76,_ZNSt20__uninitialized_copyILb0EE13__uninit_copyIPN9sharedLib8PlaylistES4_EET0_T_S6_S5_
FNDA:0,_ZNSt20__uninitialized_copyILb0EE13__uninit_copyIPN9sharedLib8PlaylistES4_EET0_T_S6_S5_
FN:76,_ZNSt20__uninitialized_copyILb0EE13__uninit_copyIPN9sharedLib4SongES4_EET0_T_S6_S5_
FNDA:0,_ZNSt20__uninitialized_copyILb0EE13__uninit_copyIPN9sharedLib4SongES4_EET0_T_S6_S5_
FN:76,_ZNSt20__uninitialized_copyILb0EE13__uninit_copyIN9__gnu_cxx17__normal_iteratorIPKN9sharedLib7MessageESt6vectorIS5_SaIS5_EEEEPS5_EET0_T_SE_SD_
FNDA:0,_ZNSt20__uninitialized_copyILb0EE13__uninit_copyIN9__gnu_cxx17__normal_iteratorIPKN9sharedLib7MessageESt6vectorIS5_SaIS5_EEEEPS5_EET0_T_SE_SD_
FN:76,_ZNSt20__uninitialized_copyILb0EE13__uninit_copyIN9__gnu_cxx17__normal_iteratorIPKN9sharedLib4SongESt6vectorIS5_SaIS5_EEEEPS5_EET0_T_SE_SD_
FNDA:3,_ZNSt20__uninitialized_copyILb0EE13__uninit_copyIN9__gnu_cxx17__normal_iteratorIPKN9sharedLib4SongESt6vectorIS5_SaIS5_EEEEPS5_EET0_T_SE_SD_
FN:76,_ZNSt20__uninitialized_copyILb0EE13__uninit_copyIN9__gnu_cxx17__normal_iteratorIPKN9sharedLib8PlaylistESt6vectorIS5_SaIS5_EEEEPS5_EET0_T_SE_SD_
FNDA:3,_ZNSt20__uninitialized_copyILb0EE13__uninit_copyIN9__gnu_cxx17__normal_iteratorIPKN9sharedLib8PlaylistESt6vectorIS5_SaIS5_EEEEPS5_EET0_T_SE_SD_
FN:99,_ZNSt20__uninitialized_copyILb1EE13__uninit_copyIPN9sharedLib8PlatformES4_EET0_T_S6_S5_
FNDA:0,_ZNSt20__uninitialized_copyILb1EE13__uninit_copyIPN9sharedLib8PlatformES4_EET0_T_S6_S5_
FN:99,_ZNSt20__uninitialized_copyILb1EE13__uninit_copyIN9__gnu_cxx17__normal_iteratorIPKN9sharedLib8PlatformESt6vectorIS5_SaIS5_EEEEPS5_EET0_T_SE_SD_
FNDA:3,_ZNSt20__uninitialized_copyILb1EE13__uninit_copyIN9__gnu_cxx17__normal_iteratorIPKN9sharedLib8PlatformESt6vectorIS5_SaIS5_EEEEPS5_EET0_T_SE_SD_
FN:115,_ZSt18uninitialized_copyIPN9sharedLib8PlatformES2_ET0_T_S4_S3_
FNDA:0,_ZSt18uninitialized_copyIPN9sharedLib8PlatformES2_ET0_T_S4_S3_
FN:115,_ZSt18uninitialized_copyIPN9sharedLib7MessageES2_ET0_T_S4_S3_
FNDA:0,_ZSt18uninitialized_copyIPN9sharedLib7MessageES2_ET0_T_S4_S3_
FN:115,_ZSt18uninitialized_copyIPN9sharedLib8PlaylistES2_ET0_T_S4_S3_
FNDA:0,_ZSt18uninitialized_copyIPN9sharedLib8PlaylistES2_ET0_T_S4_S3_
FN:115,_ZSt18uninitialized_copyIPN9sharedLib4SongES2_ET0_T_S4_S3_
FNDA:0,_ZSt18uninitialized_copyIPN9sharedLib4SongES2_ET0_T_S4_S3_
FN:115,_ZSt18uninitialized_copyIN9__gnu_cxx17__normal_iteratorIPKN9sharedLib7MessageESt6vectorIS3_SaIS3_EEEEPS3_ET0_T_SC_SB_
FNDA:0,_ZSt18uninitialized_copyIN9__gnu_cxx17__normal_iteratorIPKN9sharedLib7MessageESt6vectorIS3_SaIS3_EEEEPS3_ET0_T_SC_SB_
FN:115,_ZSt18uninitialized_copyIN9__gnu_cxx17__normal_iteratorIPKN9sharedLib8PlaylistESt6vectorIS3_SaIS3_EEEEPS3_ET0_T_SC_SB_
FNDA:3,_ZSt18uninitialized_copyIN9__gnu_cxx17__normal_iteratorIPKN9sharedLib8PlaylistESt6vectorIS3_SaIS3_EEEEPS3_ET0_T_SC_SB_
FN:115,_ZSt18uninitialized_copyIN9__gnu_cxx17__normal_iteratorIPKN9sharedLib4SongESt6vectorIS3_SaIS3_EEEEPS3_ET0_T_SC_SB_
FNDA:3,_ZSt18uninitialized_copyIN9__gnu_cxx17__normal_iteratorIPKN9sharedLib4SongESt6vectorIS3_SaIS3_EEEEPS3_ET0_T_SC_SB_
FN:115,_ZSt18uninitialized_copyIN9__gnu_cxx17__normal_iteratorIPKN9sharedLib8PlatformESt6vectorIS3_SaIS3_EEEEPS3_ET0_T_SC_SB_
FNDA:3,_ZSt18uninitialized_copyIN9__gnu_cxx17__normal_iteratorIPKN9sharedLib8PlatformESt6vectorIS3_SaIS3_EEEEPS3_ET0_T_SC_SB_
FN:115,_ZSt18uninitialized_copyISt13move_iteratorIPN9sharedLib7MessageEES3_ET0_T_S6_S5_
FNDA:0,_ZSt18uninitialized_copyISt13move_iteratorIPN9sharedLib7MessageEES3_ET0_T_S6_S5_
FN:305,_ZSt22__uninitialized_copy_aIPN9sharedLib7MessageES2_S1_ET0_T_S4_S3_RSaIT1_E
FNDA:0,_ZSt22__uninitialized_copy_aIPN9sharedLib7MessageES2_S1_ET0_T_S4_S3_RSaIT1_E
FN:305,_ZSt22__uninitialized_copy_aISt13move_iteratorIPN9sharedLib7MessageEES3_S2_ET0_T_S6_S5_RSaIT1_E
FNDA:0,_ZSt22__uninitialized_copy_aISt13move_iteratorIPN9sharedLib7MessageEES3_S2_ET0_T_S6_S5_RSaIT1_E
FN:305,_ZSt22__uninitialized_copy_aIN9__gnu_cxx17__normal_iteratorIPKN9sharedLib8PlatformESt6vectorIS3_SaIS3_EEEEPS3_S3_ET0_T_SC_SB_RSaIT1_E
FNDA:3,_ZSt22__uninitialized_copy_aIN9__gnu_cxx17__normal_iteratorIPKN9sharedLib8PlatformESt6vectorIS3_SaIS3_EEEEPS3_S3_ET0_T_SC_SB_RSaIT1_E
FN:305,_ZSt22__uninitialized_copy_aIN9__gnu_cxx17__normal_iteratorIPKN9sharedLib4SongESt6vectorIS3_SaIS3_EEEEPS3_S3_ET0_T_SC_SB_RSaIT1_E
FNDA:3,_ZSt22__uninitialized_copy_aIN9__gnu_cxx17__normal_iteratorIPKN9sharedLib4SongESt6vectorIS3_SaIS3_EEEEPS3_S3_ET0_T_SC_SB_RSaIT1_E
FN:305,_ZSt22__uninitialized_copy_aIPN9sharedLib8PlaylistES2_S1_ET0_T_S4_S3_RSaIT1_E
FNDA:0,_ZSt22__uninitialized_copy_aIPN9sharedLib8PlaylistES2_S1_ET0_T_S4_S3_RSaIT1_E
FN:305,_ZSt22__uninitialized_copy_aIN9__gnu_cxx17__normal_iteratorIPKN9sharedLib8PlaylistESt6vectorIS3_SaIS3_EEEEPS3_S3_ET0_T_SC_SB_RSaIT1_E
FNDA:3,_ZSt22__uninitialized_copy_aIN9__gnu_cxx17__normal_iteratorIPKN9sharedLib8PlaylistESt6vectorIS3_SaIS3_EEEEPS3_S3_ET0_T_SC_SB_RSaIT1_E
FN:305,_ZSt22__uninitialized_copy_aIN9__gnu_cxx17__normal_iteratorIPKN9sharedLib7MessageESt6vectorIS3_SaIS3_EEEEPS3_S3_ET0_T_SC_SB_RSaIT1_E
FNDA:0,_ZSt22__uninitialized_copy_aIN9__gnu_cxx17__normal_iteratorIPKN9sharedLib7MessageESt6vectorIS3_SaIS3_EEEEPS3_S3_ET0_T_SC_SB_RSaIT1_E
FN:305,_ZSt22__uninitialized_copy_aIPN9sharedLib8PlatformES2_S1_ET0_T_S4_S3_RSaIT1_E
FNDA:0,_ZSt22__uninitialized_copy_aIPN9sharedLib8PlatformES2_S1_ET0_T_S4_S3_RSaIT1_E
FN:305,_ZSt22__uninitialized_copy_aIPN9sharedLib4SongES2_S1_ET0_T_S4_S3_RSaIT1_E
FNDA:0,_ZSt22__uninitialized_copy_aIPN9sharedLib4SongES2_S1_ET0_T_S4_S3_RSaIT1_E
FN:323,_ZSt34__uninitialized_move_if_noexcept_aIPN9sharedLib7MessageES2_SaIS1_EET0_T_S5_S4_RT1_
FNDA:0,_ZSt34__uninitialized_move_if_noexcept_aIPN9sharedLib7MessageES2_SaIS1_EET0_T_S5_S4_RT1_
FN:905,_ZSt19__relocate_object_aIN9sharedLib7MessageES1_SaIS1_EEvPT_PT0_RT1_
FNDA:0,_ZSt19__relocate_object_aIN9sharedLib7MessageES1_SaIS1_EEvPT_PT0_RT1_
FN:936,_ZSt14__relocate_a_1IPN9sharedLib7MessageES2_SaIS1_EET0_T_S5_S4_RT1_
FNDA:2,_ZSt14__relocate_a_1IPN9sharedLib7MessageES2_SaIS1_EET0_T_S5_S4_RT1_
FN:958,_ZSt12__relocate_aIPN9sharedLib7MessageES2_SaIS1_EET0_T_S5_S4_RT1_
FNDA:2,_ZSt12__relocate_aIPN9sharedLib7MessageES2_SaIS1_EET0_T_S5_S4_RT1_
DA:76,0
DA:79,0
DA:82,0
DA:83,0
DA:84,0
DA:86,0
DA:88,0
DA:89,0
DA:76,3
DA:79,3
DA:82,5
DA:83,2
DA:84,3
DA:86,0
DA:88,0
DA:89,0
DA:76,3
DA:79,3
DA:82,5
DA:83,2
DA:84,3
DA:86,0
DA:88,0
DA:89,0
DA:76,0
DA:79,0
DA:82,0
DA:83,0
DA:84,0
DA:86,0
DA:88,0
DA:89,0
DA:76,0
DA:79,0
DA:82,0
DA:83,0
DA:84,0
DA:86,0
DA:88,0
DA:89,0
DA:76,0
DA:79,0
DA:82,0
DA:83,0
DA:84,0
DA:86,0
DA:88,0
DA:89,0
DA:76,0
DA:79,0
DA:82,0
DA:83,0
DA:84,0
DA:86,0
DA:88,0
DA:89,0
DA:99,3
DA:101,3
DA:99,0
DA:101,0
DA:115,0
DA:134,0
DA:140,0
DA:115,3
DA:134,3
DA:140,3
DA:115,3
DA:134,3
DA:140,3
DA:115,3
DA:134,3
DA:140,3
DA:115,0
DA:134,0
DA:140,0
DA:115,0
DA:134,0
DA:140,0
DA:115,0
DA:134,0
DA:140,0
DA:115,0
DA:134,0
DA:140,0
DA:115,0
DA:134,0
DA:140,0
DA:305,0
DA:307,0
DA:305,3
DA:307,3
DA:305,3
DA:307,3
DA:305,3
DA:307,3
DA:305,0
DA:307,0
DA:305,0
DA:307,0
DA:305,0
DA:307,0
DA:305,0
DA:307,0
DA:305,0
DA:307,0
DA:323,0
DA:329,0
DA:330,0
DA:905,0
DA:912,0
DA:913,0
DA:914,0
DA:936,2
DA:948,2
DA:949,2
DA:950,0
DA:952,2
DA:958,2
DA:964,2
DA:966,2
end_of_record
SF:/usr/include/c++/9/bits/move.h
FN:47,_ZSt11__addressofIN9sharedLib7MessageEEPT_RS2_
FNDA:2,_ZSt11__addressofIN9sharedLib7MessageEEPT_RS2_
FN:47,_ZSt11__addressofIN9sharedLib4SongEEPT_RS2_
FNDA:20,_ZSt11__addressofIN9sharedLib4SongEEPT_RS2_
FN:47,_ZSt11__addressofIN9sharedLib8PlaylistEEPT_RS2_
FNDA:20,_ZSt11__addressofIN9sharedLib8PlaylistEEPT_RS2_
FN:47,_ZSt11__addressofIKZN6client12MessageGroup7sendNetEvEUlRKN9sharedLib7MessageEE0_EPT_RS8_
FNDA:0,_ZSt11__addressofIKZN6client12MessageGroup7sendNetEvEUlRKN9sharedLib7MessageEE0_EPT_RS8_
FN:47,_ZSt11__addressofIKZN6client12MessageGroup7sendNetEvEUlRKN9sharedLib7MessageEE_EPT_RS8_
FNDA:0,_ZSt11__addressofIKZN6client12MessageGroup7sendNetEvEUlRKN9sharedLib7MessageEE_EPT_RS8_
FN:74,_ZSt7forwardIRKN9sharedLib7MessageEEOT_RNSt16remove_referenceIS4_E4typeE
FNDA:5,_ZSt7forwardIRKN9sharedLib7MessageEEOT_RNSt16remove_referenceIS4_E4typeE
FN:74,_ZSt7forwardIN9sharedLib7MessageEEOT_RNSt16remove_referenceIS2_E4typeE
FNDA:0,_ZSt7forwardIN9sharedLib7MessageEEOT_RNSt16remove_referenceIS2_E4typeE
FN:74,_ZSt7forwardIRKN9__gnu_cxx17__normal_iteratorIPN9sharedLib7MessageESt6vectorIS3_SaIS3_EEEEEOT_RNSt16remove_referenceISB_E4typeE
FNDA:12,_ZSt7forwardIRKN9__gnu_cxx17__normal_iteratorIPN9sharedLib7MessageESt6vectorIS3_SaIS3_EEEEEOT_RNSt16remove_referenceISB_E4typeE
FN:74,_ZSt7forwardIRKN9sharedLib4SongEEOT_RNSt16remove_referenceIS4_E4typeE
FNDA:2,_ZSt7forwardIRKN9sharedLib4SongEEOT_RNSt16remove_referenceIS4_E4typeE
FN:74,_ZSt7forwardIRKN9sharedLib8PlaylistEEOT_RNSt16remove_referenceIS4_E4typeE
FNDA:2,_ZSt7forwardIRKN9sharedLib8PlaylistEEOT_RNSt16remove_referenceIS4_E4typeE
FN:74,_ZSt7forwardIRN9sharedLib4SongEEOT_RNSt16remove_referenceIS3_E4typeE
FNDA:0,_ZSt7forwardIRN9sharedLib4SongEEOT_RNSt16remove_referenceIS3_E4typeE
FN:74,_ZSt7forwardIRN9sharedLib8PlaylistEEOT_RNSt16remove_referenceIS3_E4typeE
FNDA:0,_ZSt7forwardIRN9sharedLib8PlaylistEEOT_RNSt16remove_referenceIS3_E4typeE
FN:74,_ZSt7forwardIRN9sharedLib7MessageEEOT_RNSt16remove_referenceIS3_E4typeE
FNDA:0,_ZSt7forwardIRN9sharedLib7MessageEEOT_RNSt16remove_referenceIS3_E4typeE
FN:99,_ZSt4moveIRSt9_Any_dataEONSt16remove_referenceIT_E4typeEOS3_
FNDA:3,_ZSt4moveIRSt9_Any_dataEONSt16remove_referenceIT_E4typeEOS3_
FN:99,_ZSt4moveIRKSt6vectorIN9sharedLib7MessageESaIS2_EEEONSt16remove_referenceIT_E4typeEOS8_
FNDA:0,_ZSt4moveIRKSt6vectorIN9sharedLib7MessageESaIS2_EEEONSt16remove_referenceIT_E4typeEOS8_
FN:99,_ZSt4moveIRZN6client12MessageGroup7sendNetEvEUlRKN9sharedLib7MessageEE0_EONSt16remove_referenceIT_E4typeEOS9_
FNDA:0,_ZSt4moveIRZN6client12MessageGroup7sendNetEvEUlRKN9sharedLib7MessageEE0_EONSt16remove_referenceIT_E4typeEOS9_
FN:99,_ZSt4moveIRZN6client12MessageGroup7sendNetEvEUlRKN9sharedLib7MessageEE_EONSt16remove_referenceIT_E4typeEOS9_
FNDA:6,_ZSt4moveIRZN6client12MessageGroup7sendNetEvEUlRKN9sharedLib7MessageEE_EONSt16remove_referenceIT_E4typeEOS9_
FN:99,_ZSt4moveIRSaIcEEONSt16remove_referenceIT_E4typeEOS3_
FNDA:0,_ZSt4moveIRSaIcEEONSt16remove_referenceIT_E4typeEOS3_
FN:99,_ZSt4moveIRNSt12_Vector_baseIN9sharedLib8PlatformESaIS2_EE12_Vector_implEEONSt16remove_referenceIT_E4typeEOS8_
FNDA:0,_ZSt4moveIRNSt12_Vector_baseIN9sharedLib8PlatformESaIS2_EE12_Vector_implEEONSt16remove_referenceIT_E4typeEOS8_
FN:99,_ZSt4moveIRPFbRSt9_Any_dataRKS0_St18_Manager_operationEEONSt16remove_referenceIT_E4typeEOS9_
FNDA:3,_ZSt4moveIRPFbRSt9_Any_dataRKS0_St18_Manager_operationEEONSt16remove_referenceIT_E4typeEOS9_
FN:99,_ZSt4moveIRPFvRKSt9_Any_dataRKN9__gnu_cxx17__normal_iteratorIPN9sharedLib7MessageESt6vectorIS6_SaIS6_EEEESD_EEONSt16remove_referenceIT_E4typeEOSI_
FNDA:3,_ZSt4moveIRPFvRKSt9_Any_dataRKN9__gnu_cxx17__normal_iteratorIPN9sharedLib7MessageESt6vectorIS6_SaIS6_EEEESD_EEONSt16remove_referenceIT_E4typeEOSI_
FN:99,_ZSt4moveIRN9sharedLib7MessageEEONSt16remove_referenceIT_E4typeEOS4_
FNDA:0,_ZSt4moveIRN9sharedLib7MessageEEONSt16remove_referenceIT_E4typeEOS4_
FN:99,_ZSt4moveIRNSt12_Vector_baseIN9sharedLib8PlaylistESaIS2_EE12_Vector_implEEONSt16remove_referenceIT_E4typeEOS8_
FNDA:0,_ZSt4moveIRNSt12_Vector_baseIN9sharedLib8PlaylistESaIS2_EE12_Vector_implEEONSt16remove_referenceIT_E4typeEOS8_
FN:99,_ZSt4moveIRNSt12_Vector_baseIN9sharedLib4SongESaIS2_EE12_Vector_implEEONSt16remove_referenceIT_E4typeEOS8_
FNDA:0,_ZSt4moveIRNSt12_Vector_baseIN9sharedLib4SongESaIS2_EE12_Vector_implEEONSt16remove_referenceIT_E4typeEOS8_
FN:182,_ZSt4swapISt9_Any_dataENSt9enable_ifIXsrSt6__and_IJSt6__not_ISt15__is_tuple_likeIT_EESt21is_move_constructibleIS5_ESt18is_move_assignableIS5_EEE5valueEvE4typeERS5_SF_
FNDA:1,_ZSt4swapISt9_Any_dataENSt9enable_ifIXsrSt6__and_IJSt6__not_ISt15__is_tuple_likeIT_EESt21is_move_constructibleIS5_ESt18is_move_assignableIS5_EEE5valueEvE4typeERS5_SF_
FN:182,_ZSt4swapIPFbRSt9_Any_dataRKS0_St18_Manager_operationEENSt9enable_ifIXsrSt6__and_IJSt6__not_ISt15__is_tuple_likeIT_EESt21is_move_constructibleISB_ESt18is_move_assignableISB_EEE5valueEvE4typeERSB_SL_
FNDA:1,_ZSt4swapIPFbRSt9_Any_dataRKS0_St18_Manager_operationEENSt9enable_ifIXsrSt6__and_IJSt6__not_ISt15__is_tuple_likeIT_EESt21is_move_constructibleISB_ESt18is_move_assignableISB_EEE5valueEvE4typeERSB_SL_
FN:182,_ZSt4swapIPFvRKSt9_Any_dataRKN9__gnu_cxx17__normal_iteratorIPN9sharedLib7MessageESt6vectorIS6_SaIS6_EEEESD_EENSt9enable_ifIXsrSt6__and_IJSt6__not_ISt15__is_tuple_likeIT_EESt21is_move_constructibleISK_ESt18is_move_assignableISK_EEE5valueEvE4typeERSK_SU_
FNDA:1,_ZSt4swapIPFvRKSt9_Any_dataRKN9__gnu_cxx17__normal_iteratorIPN9sharedLib7MessageESt6vectorIS6_SaIS6_EEEESD_EENSt9enable_ifIXsrSt6__and_IJSt6__not_ISt15__is_tuple_likeIT_EESt21is_move_constructibleISK_ESt18is_move_assignableISK_EEE5valueEvE4typeERSK_SU_
DA:47,2
DA:48,2
DA:47,20
DA:48,20
DA:47,20
DA:48,20
DA:47,0
DA:48,0
DA:47,0
DA:48,0
DA:74,0
DA:75,0
DA:74,2
DA:75,2
DA:74,2
DA:75,2
DA:74,0
DA:75,0
DA:74,0
DA:75,0
DA:74,0
DA:75,0
DA:74,5
DA:75,5
DA:74,12
DA:75,12
DA:99,0
DA:100,0
DA:99,0
DA:100,0
DA:99,0
DA:100,0
DA:99,0
DA:100,0
DA:99,3
DA:100,3
DA:99,3
DA:100,3
DA:99,3
DA:100,3
DA:99,0
DA:100,0
DA:99,6
DA:100,6
DA:99,0
DA:100,0
DA:99,0
DA:100,0
DA:182,1
DA:193,1
DA:194,1
DA:195,1
DA:196,1
DA:182,1
DA:193,1
DA:194,1
DA:195,1
DA:196,1
DA:182,1
DA:193,1
DA:194,1
DA:195,1
DA:196,1
end_of_record
SF:/usr/include/c++/9/bits/allocator.h
FN:137,_ZNSaIN9sharedLib7MessageEEC2Ev
FNDA:1,_ZNSaIN9sharedLib7MessageEEC2Ev
FN:137,_ZNSaIN9sharedLib8PlatformEEC2Ev
FNDA:2,_ZNSaIN9sharedLib8PlatformEEC2Ev
FN:137,_ZNSaIN9sharedLib4SongEEC2Ev
FNDA:5,_ZNSaIN9sharedLib4SongEEC2Ev
FN:137,_ZNSaIN9sharedLib8PlaylistEEC2Ev
FNDA:5,_ZNSaIN9sharedLib8PlaylistEEC2Ev
FN:140,_ZNSaIN9sharedLib8PlatformEEC2ERKS1_
FNDA:4,_ZNSaIN9sharedLib8PlatformEEC2ERKS1_
FN:140,_ZNSaIN9sharedLib4SongEEC2ERKS1_
FNDA:4,_ZNSaIN9sharedLib4SongEEC2ERKS1_
FN:140,_ZNSaIN9sharedLib8PlaylistEEC2ERKS1_
FNDA:4,_ZNSaIN9sharedLib8PlaylistEEC2ERKS1_
FN:152,_ZNSaIN9sharedLib7MessageEED2Ev
FNDA:1,_ZNSaIN9sharedLib7MessageEED2Ev
FN:152,_ZNSaIN9sharedLib8PlatformEED2Ev
FNDA:6,_ZNSaIN9sharedLib8PlatformEED2Ev
FN:152,_ZNSaIN9sharedLib4SongEED2Ev
FNDA:9,_ZNSaIN9sharedLib4SongEED2Ev
FN:152,_ZNSaIN9sharedLib8PlaylistEED2Ev
FNDA:9,_ZNSaIN9sharedLib8PlaylistEED2Ev
FN:159,_ZStneRKSaIN9sharedLib8PlatformEES3_
FNDA:0,_ZStneRKSaIN9sharedLib8PlatformEES3_
FN:159,_ZStneRKSaIN9sharedLib4SongEES3_
FNDA:0,_ZStneRKSaIN9sharedLib4SongEES3_
FN:159,_ZStneRKSaIN9sharedLib8PlaylistEES3_
FNDA:0,_ZStneRKSaIN9sharedLib8PlaylistEES3_
FN:159,_ZStneRKSaIN9sharedLib7MessageEES3_
FNDA:0,_ZStneRKSaIN9sharedLib7MessageEES3_
DA:137,1
DA:137,2
DA:137,5
DA:137,5
DA:140,4
DA:141,4
DA:140,4
DA:141,4
DA:140,4
DA:141,4
DA:152,1
DA:152,6
DA:152,9
DA:152,9
DA:159,0
DA:160,0
DA:159,0
DA:160,0
DA:159,0
DA:160,0
DA:159,0
DA:160,0
end_of_record
SF:/usr/include/c++/9/bits/stl_iterator_base_types.h
FN:205,_ZSt19__iterator_categoryIPcENSt15iterator_traitsIT_E17iterator_categoryERKS2_
FNDA:0,_ZSt19__iterator_categoryIPcENSt15iterator_traitsIT_E17iterator_categoryERKS2_
FN:205,_ZSt19__iterator_categoryIPKcENSt15iterator_traitsIT_E17iterator_categoryERKS3_
FNDA:0,_ZSt19__iterator_categoryIPKcENSt15iterator_traitsIT_E17iterator_categoryERKS3_
DA:205,0
DA:206,0
DA:205,0
DA:206,0
end_of_record
SF:/usr/include/c++/9/iostream
end_of_record
SF:/usr/include/c++/9/bits/stl_algobase.h
FN:198,_ZSt3minImERKT_S2_S2_
FNDA:105,_ZSt3minImERKT_S2_S2_
FN:222,_ZSt3maxImERKT_S2_S2_
FNDA:47,_ZSt3maxImERKT_S2_S2_
FN:280,_ZSt12__niter_baseIPN9sharedLib7MessageEET_S3_
FNDA:6,_ZSt12__niter_baseIPN9sharedLib7MessageEET_S3_
FN:280,_ZSt12__niter_baseIPN9sharedLib8PlaylistEET_S3_
FNDA:42,_ZSt12__niter_baseIPN9sharedLib8PlaylistEET_S3_
FN:280,_ZSt12__niter_baseIPN9sharedLib4SongEET_S3_
FNDA:42,_ZSt12__niter_baseIPN9sharedLib4SongEET_S3_
FN:280,_ZSt12__niter_baseIPN9sharedLib8PlatformEET_S3_
FNDA:9,_ZSt12__niter_baseIPN9sharedLib8PlatformEET_S3_
FN:289,_ZSt12__niter_wrapIN9__gnu_cxx17__normal_iteratorIPN9sharedLib7MessageESt6vectorIS3_SaIS3_EEEES4_ET_S9_T0_
FNDA:0,_ZSt12__niter_wrapIN9__gnu_cxx17__normal_iteratorIPN9sharedLib7MessageESt6vectorIS3_SaIS3_EEEES4_ET_S9_T0_
FN:289,_ZSt12__niter_wrapIN9__gnu_cxx17__normal_iteratorIPN9sharedLib8PlaylistESt6vectorIS3_SaIS3_EEEES4_ET_S9_T0_
FNDA:0,_ZSt12__niter_wrapIN9__gnu_cxx17__normal_iteratorIPN9sharedLib8PlaylistESt6vectorIS3_SaIS3_EEEES4_ET_S9_T0_
FN:289,_ZSt12__niter_wrapIN9__gnu_cxx17__normal_iteratorIPN9sharedLib4SongESt6vectorIS3_SaIS3_EEEES4_ET_S9_T0_
FNDA:0,_ZSt12__niter_wrapIN9__gnu_cxx17__normal_iteratorIPN9sharedLib4SongESt6vectorIS3_SaIS3_EEEES4_ET_S9_T0_
FN:289,_ZSt12__niter_wrapIN9__gnu_cxx17__normal_iteratorIPN9sharedLib8PlatformESt6vectorIS3_SaIS3_EEEES4_ET_S9_T0_
FNDA:0,_ZSt12__niter_wrapIN9__gnu_cxx17__normal_iteratorIPN9sharedLib8PlatformESt6vectorIS3_SaIS3_EEEES4_ET_S9_T0_
FN:295,_ZSt12__niter_wrapIPN9sharedLib4SongEET_RKS3_S3_
FNDA:0,_ZSt12__niter_wrapIPN9sharedLib4SongEET_RKS3_S3_
FN:295,_ZSt12__niter_wrapIPN9sharedLib7MessageEET_RKS3_S3_
FNDA:0,_ZSt12__niter_wrapIPN9sharedLib7MessageEET_RKS3_S3_
FN:295,_ZSt12__niter_wrapIPN9sharedLib8PlaylistEET_RKS3_S3_
FNDA:0,_ZSt12__niter_wrapIPN9sharedLib8PlaylistEET_RKS3_S3_
FN:295,_ZSt12__niter_wrapIPN9sharedLib8PlatformEET_RKS3_S3_
FNDA:3,_ZSt12__niter_wrapIPN9sharedLib8PlatformEET_RKS3_S3_
FN:337,_ZNSt11__copy_moveILb0ELb0ESt26random_access_iterator_tagE8__copy_mIPN9sharedLib4SongES5_EET0_T_S7_S6_
FNDA:0,_ZNSt11__copy_moveILb0ELb0ESt26random_access_iterator_tagE8__copy_mIPN9sharedLib4SongES5_EET0_T_S7_S6_
FN:337,_ZNSt11__copy_moveILb0ELb0ESt26random_access_iterator_tagE8__copy_mIPKN9sharedLib7MessageEPS4_EET0_T_S9_S8_
FNDA:0,_ZNSt11__copy_moveILb0ELb0ESt26random_access_iterator_tagE8__copy_mIPKN9sharedLib7MessageEPS4_EET0_T_S9_S8_
FN:337,_ZNSt11__copy_moveILb0ELb0ESt26random_access_iterator_tagE8__copy_mIPN9sharedLib7MessageES5_EET0_T_S7_S6_
FNDA:0,_ZNSt11__copy_moveILb0ELb0ESt26random_access_iterator_tagE8__copy_mIPN9sharedLib7MessageES5_EET0_T_S7_S6_
FN:337,_ZNSt11__copy_moveILb0ELb0ESt26random_access_iterator_tagE8__copy_mIPKN9sharedLib4SongEPS4_EET0_T_S9_S8_
FNDA:0,_ZNSt11__copy_moveILb0ELb0ESt26random_access_iterator_tagE8__copy_mIPKN9sharedLib4SongEPS4_EET0_T_S9_S8_
FN:337,_ZNSt11__copy_moveILb0ELb0ESt26random_access_iterator_tagE8__copy_mIPKN9sharedLib8PlaylistEPS4_EET0_T_S9_S8_
FNDA:0,_ZNSt11__copy_moveILb0ELb0ESt26random_access_iterator_tagE8__copy_mIPKN9sharedLib8PlaylistEPS4_EET0_T_S9_S8_
FN:337,_ZNSt11__copy_moveILb0ELb0ESt26random_access_iterator_tagE8__copy_mIPN9sharedLib8PlaylistES5_EET0_T_S7_S6_
FNDA:0,_ZNSt11__copy_moveILb0ELb0ESt26random_access_iterator_tagE8__copy_mIPN9sharedLib8PlaylistES5_EET0_T_S7_S6_
FN:375,_ZNSt11__copy_moveILb0ELb1ESt26random_access_iterator_tagE8__copy_mIN9sharedLib8PlatformEEEPT_PKS5_S8_S6_
FNDA:3,_ZNSt11__copy_moveILb0ELb1ESt26random_access_iterator_tagE8__copy_mIN9sharedLib8PlatformEEEPT_PKS5_S8_S6_
FN:393,_ZSt13__copy_move_aILb0EPKN9sharedLib8PlatformEPS1_ET1_T0_S6_S5_
FNDA:3,_ZSt13__copy_move_aILb0EPKN9sharedLib8PlatformEPS1_ET1_T0_S6_S5_
FN:393,_ZSt13__copy_move_aILb0EPKN9sharedLib7MessageEPS1_ET1_T0_S6_S5_
FNDA:0,_ZSt13__copy_move_aILb0EPKN9sharedLib7MessageEPS1_ET1_T0_S6_S5_
FN:393,_ZSt13__copy_move_aILb0EPN9sharedLib7MessageES2_ET1_T0_S4_S3_
FNDA:0,_ZSt13__copy_move_aILb0EPN9sharedLib7MessageES2_ET1_T0_S4_S3_
FN:393,_ZSt13__copy_move_aILb0EPKN9sharedLib8PlaylistEPS1_ET1_T0_S6_S5_
FNDA:0,_ZSt13__copy_move_aILb0EPKN9sharedLib8PlaylistEPS1_ET1_T0_S6_S5_
FN:393,_ZSt13__copy_move_aILb0EPN9sharedLib8PlaylistES2_ET1_T0_S4_S3_
FNDA:0,_ZSt13__copy_move_aILb0EPN9sharedLib8PlaylistES2_ET1_T0_S4_S3_
FN:393,_ZSt13__copy_move_aILb0EPKN9sharedLib4SongEPS1_ET1_T0_S6_S5_
FNDA:0,_ZSt13__copy_move_aILb0EPKN9sharedLib4SongEPS1_ET1_T0_S6_S5_
FN:393,_ZSt13__copy_move_aILb0EPN9sharedLib4SongES2_ET1_T0_S4_S3_
FNDA:0,_ZSt13__copy_move_aILb0EPN9sharedLib4SongES2_ET1_T0_S4_S3_
FN:393,_ZSt13__copy_move_aILb0EPN9sharedLib8PlatformES2_ET1_T0_S4_S3_
FNDA:0,_ZSt13__copy_move_aILb0EPN9sharedLib8PlatformES2_ET1_T0_S4_S3_
FN:438,_ZSt14__copy_move_a2ILb0EN9__gnu_cxx17__normal_iteratorIPKN9sharedLib8PlaylistESt6vectorIS3_SaIS3_EEEENS1_IPS3_S8_EEET1_T0_SD_SC_
FNDA:0,_ZSt14__copy_move_a2ILb0EN9__gnu_cxx17__normal_iteratorIPKN9sharedLib8PlaylistESt6vectorIS3_SaIS3_EEEENS1_IPS3_S8_EEET1_T0_SD_SC_
FN:438,_ZSt14__copy_move_a2ILb0EPN9sharedLib8PlaylistES2_ET1_T0_S4_S3_
FNDA:0,_ZSt14__copy_move_a2ILb0EPN9sharedLib8PlaylistES2_ET1_T0_S4_S3_
FN:438,_ZSt14__copy_move_a2ILb0EN9__gnu_cxx17__normal_iteratorIPKN9sharedLib8PlatformESt6vectorIS3_SaIS3_EEEEPS3_ET1_T0_SC_SB_
FNDA:3,_ZSt14__copy_move_a2ILb0EN9__gnu_cxx17__normal_iteratorIPKN9sharedLib8PlatformESt6vectorIS3_SaIS3_EEEEPS3_ET1_T0_SC_SB_
FN:438,_ZSt14__copy_move_a2ILb0EPN9sharedLib7MessageES2_ET1_T0_S4_S3_
FNDA:0,_ZSt14__copy_move_a2ILb0EPN9sharedLib7MessageES2_ET1_T0_S4_S3_
FN:438,_ZSt14__copy_move_a2ILb0EN9__gnu_cxx17__normal_iteratorIPKN9sharedLib7MessageESt6vectorIS3_SaIS3_EEEENS1_IPS3_S8_EEET1_T0_SD_SC_
FNDA:0,_ZSt14__copy_move_a2ILb0EN9__gnu_cxx17__normal_iteratorIPKN9sharedLib7MessageESt6vectorIS3_SaIS3_EEEENS1_IPS3_S8_EEET1_T0_SD_SC_
FN:438,_ZSt14__copy_move_a2ILb0EN9__gnu_cxx17__normal_iteratorIPKN9sharedLib4SongESt6vectorIS3_SaIS3_EEEENS1_IPS3_S8_EEET1_T0_SD_SC_
FNDA:0,_ZSt14__copy_move_a2ILb0EN9__gnu_cxx17__normal_iteratorIPKN9sharedLib4SongESt6vectorIS3_SaIS3_EEEENS1_IPS3_S8_EEET1_T0_SD_SC_
FN:438,_ZSt14__copy_move_a2ILb0EPN9sharedLib4SongES2_ET1_T0_S4_S3_
FNDA:0,_ZSt14__copy_move_a2ILb0EPN9sharedLib4SongES2_ET1_T0_S4_S3_
FN:438,_ZSt14__copy_move_a2ILb0EN9__gnu_cxx17__normal_iteratorIPKN9sharedLib8PlatformESt6vectorIS3_SaIS3_EEEENS1_IPS3_S8_EEET1_T0_SD_SC_
FNDA:0,_ZSt14__copy_move_a2ILb0EN9__gnu_cxx17__normal_iteratorIPKN9sharedLib8PlatformESt6vectorIS3_SaIS3_EEEENS1_IPS3_S8_EEET1_T0_SD_SC_
FN:438,_ZSt14__copy_move_a2ILb0EPN9sharedLib8PlatformES2_ET1_T0_S4_S3_
FNDA:0,_ZSt14__copy_move_a2ILb0EPN9sharedLib8PlatformES2_ET1_T0_S4_S3_
FN:465,_ZSt4copyIN9__gnu_cxx17__normal_iteratorIPKN9sharedLib7MessageESt6vectorIS3_SaIS3_EEEENS1_IPS3_S8_EEET0_T_SD_SC_
FNDA:0,_ZSt4copyIN9__gnu_cxx17__normal_iteratorIPKN9sharedLib7MessageESt6vectorIS3_SaIS3_EEEENS1_IPS3_S8_EEET0_T_SD_SC_
FN:465,_ZSt4copyIPN9sharedLib7MessageES2_ET0_T_S4_S3_
FNDA:0,_ZSt4copyIPN9sharedLib7MessageES2_ET0_T_S4_S3_
FN:465,_ZSt4copyIN9__gnu_cxx17__normal_iteratorIPKN9sharedLib8PlaylistESt6vectorIS3_SaIS3_EEEENS1_IPS3_S8_EEET0_T_SD_SC_
FNDA:0,_ZSt4copyIN9__gnu_cxx17__normal_iteratorIPKN9sharedLib8PlaylistESt6vectorIS3_SaIS3_EEEENS1_IPS3_S8_EEET0_T_SD_SC_
FN:465,_ZSt4copyIPN9sharedLib8PlaylistES2_ET0_T_S4_S3_
FNDA:0,_ZSt4copyIPN9sharedLib8PlaylistES2_ET0_T_S4_S3_
FN:465,_ZSt4copyIN9__gnu_cxx17__normal_iteratorIPKN9sharedLib4SongESt6vectorIS3_SaIS3_EEEENS1_IPS3_S8_EEET0_T_SD_SC_
FNDA:0,_ZSt4copyIN9__gnu_cxx17__normal_iteratorIPKN9sharedLib4SongESt6vectorIS3_SaIS3_EEEENS1_IPS3_S8_EEET0_T_SD_SC_
FN:465,_ZSt4copyIPN9sharedLib4SongES2_ET0_T_S4_S3_
FNDA:0,_ZSt4copyIPN9sharedLib4SongES2_ET0_T_S4_S3_
FN:465,_ZSt4copyIN9__gnu_cxx17__normal_iteratorIPKN9sharedLib8PlatformESt6vectorIS3_SaIS3_EEEENS1_IPS3_S8_EEET0_T_SD_SC_
FNDA:0,_ZSt4copyIN9__gnu_cxx17__normal_iteratorIPKN9sharedLib8PlatformESt6vectorIS3_SaIS3_EEEENS1_IPS3_S8_EEET0_T_SD_SC_
FN:465,_ZSt4copyIPN9sharedLib8PlatformES2_ET0_T_S4_S3_
FNDA:0,_ZSt4copyIPN9sharedLib8PlatformES2_ET0_T_S4_S3_
FN:465,_ZSt4copyIN9__gnu_cxx17__normal_iteratorIPKN9sharedLib8PlatformESt6vectorIS3_SaIS3_EEEEPS3_ET0_T_SC_SB_
FNDA:3,_ZSt4copyIN9__gnu_cxx17__normal_iteratorIPKN9sharedLib8PlatformESt6vectorIS3_SaIS3_EEEEPS3_ET0_T_SC_SB_
DA:198,105
DA:203,105
DA:204,0
DA:205,105
DA:222,47
DA:227,47
DA:228,29
DA:229,18
DA:280,9
DA:282,9
DA:280,42
DA:282,42
DA:280,42
DA:282,42
DA:280,6
DA:282,6
DA:289,0
DA:290,0
DA:289,0
DA:290,0
DA:289,0
DA:290,0
DA:289,0
DA:290,0
DA:295,3
DA:296,3
DA:295,0
DA:296,0
DA:295,0
DA:296,0
DA:295,0
DA:296,0
DA:337,0
DA:340,0
DA:342,0
DA:343,0
DA:344,0
DA:346,0
DA:337,0
DA:340,0
DA:342,0
DA:343,0
DA:344,0
DA:346,0
DA:337,0
DA:340,0
DA:342,0
DA:343,0
DA:344,0
DA:346,0
DA:337,0
DA:340,0
DA:342,0
DA:343,0
DA:344,0
DA:346,0
DA:337,0
DA:340,0
DA:342,0
DA:343,0
DA:344,0
DA:346,0
DA:337,0
DA:340,0
DA:342,0
DA:343,0
DA:344,0
DA:346,0
DA:375,3
DA:384,3
DA:385,3
DA:386,2
DA:387,3
DA:393,0
DA:398,0
DA:404,0
DA:393,3
DA:398,3
DA:404,3
DA:393,0
DA:398,0
DA:404,0
DA:393,0
DA:398,0
DA:404,0
DA:393,0
DA:398,0
DA:404,0
DA:393,0
DA:398,0
DA:404,0
DA:393,0
DA:398,0
DA:404,0
DA:393,0
DA:398,0
DA:404,0
DA:438,3
DA:440,3
DA:443,3
DA:438,0
DA:440,0
DA:443,0
DA:438,0
DA:440,0
DA:443,0
DA:438,0
DA:440,0
DA:443,0
DA:438,0
DA:440,0
DA:443,0
DA:438,0
DA:440,0
DA:443,0
DA:438,0
DA:440,0
DA:443,0
DA:438,0
DA:440,0
DA:443,0
DA:438,0
DA:440,0
DA:443,0
DA:465,3
DA:474,3
DA:465,0
DA:474,0
DA:465,0
DA:474,0
DA:465,0
DA:474,0
DA:465,0
DA:474,0
DA:465,0
DA:474,0
DA:465,0
DA:474,0
DA:465,0
DA:474,0
DA:465,0
DA:474,0
end_of_record
SF:/usr/include/c++/9/bits/alloc_traits.h
FN:442,_ZNSt16allocator_traitsISaIN9sharedLib8PlatformEEE8allocateERS2_m
FNDA:4,_ZNSt16allocator_traitsISaIN9sharedLib8PlatformEEE8allocateERS2_m
FN:442,_ZNSt16allocator_traitsISaIN9sharedLib4SongEEE8allocateERS2_m
FNDA:10,_ZNSt16allocator_traitsISaIN9sharedLib4SongEEE8allocateERS2_m
FN:442,_ZNSt16allocator_traitsISaIN9sharedLib8PlaylistEEE8allocateERS2_m
FNDA:10,_ZNSt16allocator_traitsISaIN9sharedLib8PlaylistEEE8allocateERS2_m
FN:442,_ZNSt16allocator_traitsISaIN9sharedLib7MessageEEE8allocateERS2_m
FNDA:1,_ZNSt16allocator_traitsISaIN9sharedLib7MessageEEE8allocateERS2_m
FN:468,_ZNSt16allocator_traitsISaIN9sharedLib8PlaylistEEE10deallocateERS2_PS1_m
FNDA:10,_ZNSt16allocator_traitsISaIN9sharedLib8PlaylistEEE10deallocateERS2_PS1_m
FN:468,_ZNSt16allocator_traitsISaIN9sharedLib4SongEEE10deallocateERS2_PS1_m
FNDA:10,_ZNSt16allocator_traitsISaIN9sharedLib4SongEEE10deallocateERS2_PS1_m
FN:468,_ZNSt16allocator_traitsISaIN9sharedLib8PlatformEEE10deallocateERS2_PS1_m
FNDA:4,_ZNSt16allocator_traitsISaIN9sharedLib8PlatformEEE10deallocateERS2_PS1_m
FN:468,_ZNSt16allocator_traitsISaIN9sharedLib7MessageEEE10deallocateERS2_PS1_m
FNDA:1,_ZNSt16allocator_traitsISaIN9sharedLib7MessageEEE10deallocateERS2_PS1_m
FN:481,_ZNSt16allocator_traitsISaIN9sharedLib7MessageEEE9constructIS1_JS1_EEEvRS2_PT_DpOT0_
FNDA:0,_ZNSt16allocator_traitsISaIN9sharedLib7MessageEEE9constructIS1_JS1_EEEvRS2_PT_DpOT0_
FN:481,_ZNSt16allocator_traitsISaIN9sharedLib7MessageEEE9constructIS1_JRKS1_EEEvRS2_PT_DpOT0_
FNDA:2,_ZNSt16allocator_traitsISaIN9sharedLib7MessageEEE9constructIS1_JRKS1_EEEvRS2_PT_DpOT0_
FN:494,_ZNSt16allocator_traitsISaIN9sharedLib7MessageEEE7destroyIS1_EEvRS2_PT_
FNDA:0,_ZNSt16allocator_traitsISaIN9sharedLib7MessageEEE7destroyIS1_EEvRS2_PT_
FN:504,_ZNSt16allocator_traitsISaIN9sharedLib7MessageEEE8max_sizeERKS2_
FNDA:2,_ZNSt16allocator_traitsISaIN9sharedLib7MessageEEE8max_sizeERKS2_
FN:513,_ZNSt16allocator_traitsISaIcEE37select_on_container_copy_constructionERKS0_
FNDA:0,_ZNSt16allocator_traitsISaIcEE37select_on_container_copy_constructionERKS0_
FN:513,_ZNSt16allocator_traitsISaIN9sharedLib8PlaylistEEE37select_on_container_copy_constructionERKS2_
FNDA:2,_ZNSt16allocator_traitsISaIN9sharedLib8PlaylistEEE37select_on_container_copy_constructionERKS2_
FN:513,_ZNSt16allocator_traitsISaIN9sharedLib4SongEEE37select_on_container_copy_constructionERKS2_
FNDA:2,_ZNSt16allocator_traitsISaIN9sharedLib4SongEEE37select_on_container_copy_constructionERKS2_
FN:513,_ZNSt16allocator_traitsISaIN9sharedLib8PlatformEEE37select_on_container_copy_constructionERKS2_
FNDA:2,_ZNSt16allocator_traitsISaIN9sharedLib8PlatformEEE37select_on_container_copy_constructionERKS2_
FN:525,_ZSt18__do_alloc_on_copyISaIN9sharedLib8PlaylistEEEvRT_RKS3_St17integral_constantIbLb0EE
FNDA:0,_ZSt18__do_alloc_on_copyISaIN9sharedLib8PlaylistEEEvRT_RKS3_St17integral_constantIbLb0EE
FN:525,_ZSt18__do_alloc_on_copyISaIN9sharedLib7MessageEEEvRT_RKS3_St17integral_constantIbLb0EE
FNDA:0,_ZSt18__do_alloc_on_copyISaIN9sharedLib7MessageEEEvRT_RKS3_St17integral_constantIbLb0EE
FN:525,_ZSt18__do_alloc_on_copyISaIN9sharedLib4SongEEEvRT_RKS3_St17integral_constantIbLb0EE
FNDA:0,_ZSt18__do_alloc_on_copyISaIN9sharedLib4SongEEEvRT_RKS3_St17integral_constantIbLb0EE
FN:525,_ZSt18__do_alloc_on_copyISaIN9sharedLib8PlatformEEEvRT_RKS3_St17integral_constantIbLb0EE
FNDA:0,_ZSt18__do_alloc_on_copyISaIN9sharedLib8PlatformEEEvRT_RKS3_St17integral_constantIbLb0EE
FN:529,_ZSt15__alloc_on_copyISaIN9sharedLib8PlatformEEEvRT_RKS3_
FNDA:0,_ZSt15__alloc_on_copyISaIN9sharedLib8PlatformEEEvRT_RKS3_
FN:529,_ZSt15__alloc_on_copyISaIN9sharedLib4SongEEEvRT_RKS3_
FNDA:0,_ZSt15__alloc_on_copyISaIN9sharedLib4SongEEEvRT_RKS3_
FN:529,_ZSt15__alloc_on_copyISaIN9sharedLib8PlaylistEEEvRT_RKS3_
FNDA:0,_ZSt15__alloc_on_copyISaIN9sharedLib8PlaylistEEEvRT_RKS3_
FN:529,_ZSt15__alloc_on_copyISaIN9sharedLib7MessageEEEvRT_RKS3_
FNDA:0,_ZSt15__alloc_on_copyISaIN9sharedLib7MessageEEEvRT_RKS3_
DA:442,4
DA:443,4
DA:442,10
DA:443,10
DA:442,10
DA:443,10
DA:442,1
DA:443,1
DA:468,1
DA:469,1
DA:468,4
DA:469,4
DA:468,10
DA:469,10
DA:468,10
DA:469,10
DA:481,0
DA:483,0
DA:481,2
DA:483,2
DA:494,0
DA:496,0
DA:504,2
DA:505,2
DA:513,2
DA:514,2
DA:513,2
DA:514,2
DA:513,2
DA:514,2
DA:513,0
DA:514,0
DA:525,0
DA:526,0
DA:525,0
DA:526,0
DA:525,0
DA:526,0
DA:525,0
DA:526,0
DA:529,0
DA:533,0
DA:534,0
DA:529,0
DA:533,0
DA:534,0
DA:529,0
DA:533,0
DA:534,0
DA:529,0
DA:533,0
DA:534,0
end_of_record
SF:/usr/include/c++/9/new
FN:173,_ZnwmPv
FNDA:87,_ZnwmPv
FN:179,_ZdlPvS_
FNDA:0,_ZdlPvS_
DA:173,87
DA:174,87
DA:179,0
end_of_record
SF:/usr/include/c++/9/bits/char_traits.h
FN:336,_ZNSt11char_traitsIcE6lengthEPKc
FNDA:0,_ZNSt11char_traitsIcE6lengthEPKc
FN:368,_ZNSt11char_traitsIcE4copyEPcPKcm
FNDA:0,_ZNSt11char_traitsIcE4copyEPcPKcm
DA:336,0
DA:342,0
DA:368,0
DA:370,0
DA:371,0
DA:372,0
end_of_record
SF:/usr/include/c++/9/bits/stl_iterator_base_funcs.h
FN:98,_ZSt10__distanceIPcENSt15iterator_traitsIT_E15difference_typeES2_S2_St26random_access_iterator_tag
FNDA:0,_ZSt10__distanceIPcENSt15iterator_traitsIT_E15difference_typeES2_S2_St26random_access_iterator_tag
FN:98,_ZSt10__distanceIPKcENSt15iterator_traitsIT_E15difference_typeES3_S3_St26random_access_iterator_tag
FNDA:0,_ZSt10__distanceIPKcENSt15iterator_traitsIT_E15difference_typeES3_S3_St26random_access_iterator_tag
FN:138,_ZSt8distanceIPcENSt15iterator_traitsIT_E15difference_typeES2_S2_
FNDA:0,_ZSt8distanceIPcENSt15iterator_traitsIT_E15difference_typeES2_S2_
FN:138,_ZSt8distanceIPKcENSt15iterator_traitsIT_E15difference_typeES3_S3_
FNDA:0,_ZSt8distanceIPKcENSt15iterator_traitsIT_E15difference_typeES3_S3_
DA:98,0
DA:104,0
DA:98,0
DA:104,0
DA:138,0
DA:141,0
DA:142,0
DA:138,0
DA:141,0
DA:142,0
end_of_record
SF:/usr/include/c++/9/bits/stl_vector.h
FN:94,_ZNSt12_Vector_baseIN9sharedLib7MessageESaIS1_EE17_Vector_impl_dataC2Ev
FNDA:1,_ZNSt12_Vector_baseIN9sharedLib7MessageESaIS1_EE17_Vector_impl_dataC2Ev
FN:94,_ZNSt12_Vector_baseIN9sharedLib8PlatformESaIS1_EE17_Vector_impl_dataC2Ev
FNDA:4,_ZNSt12_Vector_baseIN9sharedLib8PlatformESaIS1_EE17_Vector_impl_dataC2Ev
FN:94,_ZNSt12_Vector_baseIN9sharedLib4SongESaIS1_EE17_Vector_impl_dataC2Ev
FNDA:7,_ZNSt12_Vector_baseIN9sharedLib4SongESaIS1_EE17_Vector_impl_dataC2Ev
FN:94,_ZNSt12_Vector_baseIN9sharedLib8PlaylistESaIS1_EE17_Vector_impl_dataC2Ev
FNDA:7,_ZNSt12_Vector_baseIN9sharedLib8PlaylistESaIS1_EE17_Vector_impl_dataC2Ev
FN:99,_ZNSt12_Vector_baseIN9sharedLib4SongESaIS1_EE17_Vector_impl_dataC2EOS4_
FNDA:0,_ZNSt12_Vector_baseIN9sharedLib4SongESaIS1_EE17_Vector_impl_dataC2EOS4_
FN:99,_ZNSt12_Vector_baseIN9sharedLib8PlaylistESaIS1_EE17_Vector_impl_dataC2EOS4_
FNDA:0,_ZNSt12_Vector_baseIN9sharedLib8PlaylistESaIS1_EE17_Vector_impl_dataC2EOS4_
FN:99,_ZNSt12_Vector_baseIN9sharedLib8PlatformESaIS1_EE17_Vector_impl_dataC2EOS4_
FNDA:0,_ZNSt12_Vector_baseIN9sharedLib8PlatformESaIS1_EE17_Vector_impl_dataC2EOS4_
FN:128,_ZNSt12_Vector_baseIN9sharedLib7MessageESaIS1_EE12_Vector_implC2Ev
FNDA:1,_ZNSt12_Vector_baseIN9sharedLib7MessageESaIS1_EE12_Vector_implC2Ev
FN:128,_ZNSt12_Vector_baseIN9sharedLib8PlatformESaIS1_EE12_Vector_implC2Ev
FNDA:2,_ZNSt12_Vector_baseIN9sharedLib8PlatformESaIS1_EE12_Vector_implC2Ev
FN:128,_ZNSt12_Vector_baseIN9sharedLib4SongESaIS1_EE12_Vector_implC2Ev
FNDA:5,_ZNSt12_Vector_baseIN9sharedLib4SongESaIS1_EE12_Vector_implC2Ev
FN:128,_ZNSt12_Vector_baseIN9sharedLib8PlaylistESaIS1_EE12_Vector_implC2Ev
FNDA:5,_ZNSt12_Vector_baseIN9sharedLib8PlaylistESaIS1_EE12_Vector_implC2Ev
FN:133,_ZNSt12_Vector_baseIN9sharedLib8PlatformESaIS1_EE12_Vector_implC2ERKS2_
FNDA:2,_ZNSt12_Vector_baseIN9sharedLib8PlatformESaIS1_EE12_Vector_implC2ERKS2_
FN:133,_ZNSt12_Vector_baseIN9sharedLib4SongESaIS1_EE12_Vector_implC2ERKS2_
FNDA:2,_ZNSt12_Vector_baseIN9sharedLib4SongESaIS1_EE12_Vector_implC2ERKS2_
FN:133,_ZNSt12_Vector_baseIN9sharedLib8PlaylistESaIS1_EE12_Vector_implC2ERKS2_
FNDA:2,_ZNSt12_Vector_baseIN9sharedLib8PlaylistESaIS1_EE12_Vector_implC2ERKS2_
FN:140,_ZNSt12_Vector_baseIN9sharedLib8PlaylistESaIS1_EE12_Vector_implC2EOS4_
FNDA:0,_ZNSt12_Vector_baseIN9sharedLib8PlaylistESaIS1_EE12_Vector_implC2EOS4_
FN:140,_ZNSt12_Vector_baseIN9sharedLib4SongESaIS1_EE12_Vector_implC2EOS4_
FNDA:0,_ZNSt12_Vector_baseIN9sharedLib4SongESaIS1_EE12_Vector_implC2EOS4_
FN:140,_ZNSt12_Vector_baseIN9sharedLib8PlatformESaIS1_EE12_Vector_implC2EOS4_
FNDA:0,_ZNSt12_Vector_baseIN9sharedLib8PlatformESaIS1_EE12_Vector_implC2EOS4_
FN:273,_ZNSt12_Vector_baseIN9sharedLib8PlaylistESaIS1_EE19_M_get_Tp_allocatorEv
FNDA:25,_ZNSt12_Vector_baseIN9sharedLib8PlaylistESaIS1_EE19_M_get_Tp_allocatorEv
FN:273,_ZNSt12_Vector_baseIN9sharedLib4SongESaIS1_EE19_M_get_Tp_allocatorEv
FNDA:25,_ZNSt12_Vector_baseIN9sharedLib4SongESaIS1_EE19_M_get_Tp_allocatorEv
FN:273,_ZNSt12_Vector_baseIN9sharedLib8PlatformESaIS1_EE19_M_get_Tp_allocatorEv
FNDA:10,_ZNSt12_Vector_baseIN9sharedLib8PlatformESaIS1_EE19_M_get_Tp_allocatorEv
FN:273,_ZNSt12_Vector_baseIN9sharedLib7MessageESaIS1_EE19_M_get_Tp_allocatorEv
FNDA:4,_ZNSt12_Vector_baseIN9sharedLib7MessageESaIS1_EE19_M_get_Tp_allocatorEv
FN:277,_ZNKSt12_Vector_baseIN9sharedLib8PlatformESaIS1_EE19_M_get_Tp_allocatorEv
FNDA:4,_ZNKSt12_Vector_baseIN9sharedLib8PlatformESaIS1_EE19_M_get_Tp_allocatorEv
FN:277,_ZNKSt12_Vector_baseIN9sharedLib4SongESaIS1_EE19_M_get_Tp_allocatorEv
FNDA:16,_ZNKSt12_Vector_baseIN9sharedLib4SongESaIS1_EE19_M_get_Tp_allocatorEv
FN:277,_ZNKSt12_Vector_baseIN9sharedLib8PlaylistESaIS1_EE19_M_get_Tp_allocatorEv
FNDA:16,_ZNKSt12_Vector_baseIN9sharedLib8PlaylistESaIS1_EE19_M_get_Tp_allocatorEv
FN:277,_ZNKSt12_Vector_baseIN9sharedLib7MessageESaIS1_EE19_M_get_Tp_allocatorEv
FNDA:2,_ZNKSt12_Vector_baseIN9sharedLib7MessageESaIS1_EE19_M_get_Tp_allocatorEv
FN:285,_ZNSt12_Vector_baseIN9sharedLib4SongESaIS1_EEC2Ev
FNDA:5,_ZNSt12_Vector_baseIN9sharedLib4SongESaIS1_EEC2Ev
FN:285,_ZNSt12_Vector_baseIN9sharedLib8PlaylistESaIS1_EEC2Ev
FNDA:5,_ZNSt12_Vector_baseIN9sharedLib8PlaylistESaIS1_EEC2Ev
FN:285,_ZNSt12_Vector_baseIN9sharedLib8PlatformESaIS1_EEC2Ev
FNDA:2,_ZNSt12_Vector_baseIN9sharedLib8PlatformESaIS1_EEC2Ev
FN:285,_ZNSt12_Vector_baseIN9sharedLib7MessageESaIS1_EEC2Ev
FNDA:1,_ZNSt12_Vector_baseIN9sharedLib7MessageESaIS1_EEC2Ev
FN:300,_ZNSt12_Vector_baseIN9sharedLib8PlaylistESaIS1_EEC2EmRKS2_
FNDA:2,_ZNSt12_Vector_baseIN9sharedLib8PlaylistESaIS1_EEC2EmRKS2_
FN:300,_ZNSt12_Vector_baseIN9sharedLib4SongESaIS1_EEC2EmRKS2_
FNDA:2,_ZNSt12_Vector_baseIN9sharedLib4SongESaIS1_EEC2EmRKS2_
FN:300,_ZNSt12_Vector_baseIN9sharedLib8PlatformESaIS1_EEC2EmRKS2_
FNDA:2,_ZNSt12_Vector_baseIN9sharedLib8PlatformESaIS1_EEC2EmRKS2_
FN:305,_ZNSt12_Vector_baseIN9sharedLib8PlatformESaIS1_EEC2EOS3_
FNDA:0,_ZNSt12_Vector_baseIN9sharedLib8PlatformESaIS1_EEC2EOS3_
FN:305,_ZNSt12_Vector_baseIN9sharedLib8PlaylistESaIS1_EEC2EOS3_
FNDA:0,_ZNSt12_Vector_baseIN9sharedLib8PlaylistESaIS1_EEC2EOS3_
FN:305,_ZNSt12_Vector_baseIN9sharedLib4SongESaIS1_EEC2EOS3_
FNDA:0,_ZNSt12_Vector_baseIN9sharedLib4SongESaIS1_EEC2EOS3_
FN:330,_ZNSt12_Vector_baseIN9sharedLib7MessageESaIS1_EED2Ev
FNDA:1,_ZNSt12_Vector_baseIN9sharedLib7MessageESaIS1_EED2Ev
FN:330,_ZNSt12_Vector_baseIN9sharedLib8PlatformESaIS1_EED2Ev
FNDA:4,_ZNSt12_Vector_baseIN9sharedLib8PlatformESaIS1_EED2Ev
FN:330,_ZNSt12_Vector_baseIN9sharedLib4SongESaIS1_EED2Ev
FNDA:7,_ZNSt12_Vector_baseIN9sharedLib4SongESaIS1_EED2Ev
FN:330,_ZNSt12_Vector_baseIN9sharedLib8PlaylistESaIS1_EED2Ev
FNDA:7,_ZNSt12_Vector_baseIN9sharedLib8PlaylistESaIS1_EED2Ev
FN:340,_ZNSt12_Vector_baseIN9sharedLib4SongESaIS1_EE11_M_allocateEm
FNDA:10,_ZNSt12_Vector_baseIN9sharedLib4SongESaIS1_EE11_M_allocateEm
FN:340,_ZNSt12_Vector_baseIN9sharedLib8PlatformESaIS1_EE11_M_allocateEm
FNDA:4,_ZNSt12_Vector_baseIN9sharedLib8PlatformESaIS1_EE11_M_allocateEm
FN:340,_ZNSt12_Vector_baseIN9sharedLib7MessageESaIS1_EE11_M_allocateEm
FNDA:1,_ZNSt12_Vector_baseIN9sharedLib7MessageESaIS1_EE11_M_allocateEm
FN:340,_ZNSt12_Vector_baseIN9sharedLib8PlaylistESaIS1_EE11_M_allocateEm
FNDA:10,_ZNSt12_Vector_baseIN9sharedLib8PlaylistESaIS1_EE11_M_allocateEm
FN:347,_ZNSt12_Vector_baseIN9sharedLib7MessageESaIS1_EE13_M_deallocateEPS1_m
FNDA:2,_ZNSt12_Vector_baseIN9sharedLib7MessageESaIS1_EE13_M_deallocateEPS1_m
FN:347,_ZNSt12_Vector_baseIN9sharedLib8PlaylistESaIS1_EE13_M_deallocateEPS1_m
FNDA:15,_ZNSt12_Vector_baseIN9sharedLib8PlaylistESaIS1_EE13_M_deallocateEPS1_m
FN:347,_ZNSt12_Vector_baseIN9sharedLib8PlatformESaIS1_EE13_M_deallocateEPS1_m
FNDA:6,_ZNSt12_Vector_baseIN9sharedLib8PlatformESaIS1_EE13_M_deallocateEPS1_m
FN:347,_ZNSt12_Vector_baseIN9sharedLib4SongESaIS1_EE13_M_deallocateEPS1_m
FNDA:15,_ZNSt12_Vector_baseIN9sharedLib4SongESaIS1_EE13_M_deallocateEPS1_m
FN:356,_ZNSt12_Vector_baseIN9sharedLib8PlatformESaIS1_EE17_M_create_storageEm
FNDA:2,_ZNSt12_Vector_baseIN9sharedLib8PlatformESaIS1_EE17_M_create_storageEm
FN:356,_ZNSt12_Vector_baseIN9sharedLib4SongESaIS1_EE17_M_create_storageEm
FNDA:2,_ZNSt12_Vector_baseIN9sharedLib4SongESaIS1_EE17_M_create_storageEm
FN:356,_ZNSt12_Vector_baseIN9sharedLib8PlaylistESaIS1_EE17_M_create_storageEm
FNDA:2,_ZNSt12_Vector_baseIN9sharedLib8PlaylistESaIS1_EE17_M_create_storageEm
FN:428,_ZNSt6vectorIN9sharedLib7MessageESaIS1_EE19_S_nothrow_relocateESt17integral_constantIbLb1EE
FNDA:2,_ZNSt6vectorIN9sharedLib7MessageESaIS1_EE19_S_nothrow_relocateESt17integral_constantIbLb1EE
FN:441,_ZNSt6vectorIN9sharedLib7MessageESaIS1_EE15_S_use_relocateEv
FNDA:2,_ZNSt6vectorIN9sharedLib7MessageESaIS1_EE15_S_use_relocateEv
FN:450,_ZNSt6vectorIN9sharedLib7MessageESaIS1_EE14_S_do_relocateEPS1_S4_S4_RS2_St17integral_constantIbLb1EE
FNDA:2,_ZNSt6vectorIN9sharedLib7MessageESaIS1_EE14_S_do_relocateEPS1_S4_S4_RS2_St17integral_constantIbLb1EE
FN:462,_ZNSt6vectorIN9sharedLib7MessageESaIS1_EE11_S_relocateEPS1_S4_S4_RS2_
FNDA:2,_ZNSt6vectorIN9sharedLib7MessageESaIS1_EE11_S_relocateEPS1_S4_S4_RS2_
FN:484,_ZNSt6vectorIN9sharedLib7MessageESaIS1_EEC2Ev
FNDA:1,_ZNSt6vectorIN9sharedLib7MessageESaIS1_EEC2Ev
FN:484,_ZNSt6vectorIN9sharedLib8PlaylistESaIS1_EEC2Ev
FNDA:5,_ZNSt6vectorIN9sharedLib8PlaylistESaIS1_EEC2Ev
FN:484,_ZNSt6vectorIN9sharedLib4SongESaIS1_EEC2Ev
FNDA:5,_ZNSt6vectorIN9sharedLib4SongESaIS1_EEC2Ev
FN:484,_ZNSt6vectorIN9sharedLib8PlatformESaIS1_EEC2Ev
FNDA:2,_ZNSt6vectorIN9sharedLib8PlatformESaIS1_EEC2Ev
FN:550,_ZNSt6vectorIN9sharedLib8PlaylistESaIS1_EEC2ERKS3_
FNDA:2,_ZNSt6vectorIN9sharedLib8PlaylistESaIS1_EEC2ERKS3_
FN:550,_ZNSt6vectorIN9sharedLib8PlatformESaIS1_EEC2ERKS3_
FNDA:2,_ZNSt6vectorIN9sharedLib8PlatformESaIS1_EEC2ERKS3_
FN:550,_ZNSt6vectorIN9sharedLib4SongESaIS1_EEC2ERKS3_
FNDA:2,_ZNSt6vectorIN9sharedLib4SongESaIS1_EEC2ERKS3_
FN:569,_ZNSt6vectorIN9sharedLib8PlatformESaIS1_EEC2EOS3_
FNDA:0,_ZNSt6vectorIN9sharedLib8PlatformESaIS1_EEC2EOS3_
FN:569,_ZNSt6vectorIN9sharedLib4SongESaIS1_EEC2EOS3_
FNDA:0,_ZNSt6vectorIN9sharedLib4SongESaIS1_EEC2EOS3_
FN:569,_ZNSt6vectorIN9sharedLib8PlaylistESaIS1_EEC2EOS3_
FNDA:0,_ZNSt6vectorIN9sharedLib8PlaylistESaIS1_EEC2EOS3_
FN:675,_ZNSt6vectorIN9sharedLib7MessageESaIS1_EED2Ev
FNDA:1,_ZNSt6vectorIN9sharedLib7MessageESaIS1_EED2Ev
FN:675,_ZNSt6vectorIN9sharedLib4SongESaIS1_EED2Ev
FNDA:7,_ZNSt6vectorIN9sharedLib4SongESaIS1_EED2Ev
FN:675,_ZNSt6vectorIN9sharedLib8PlatformESaIS1_EED2Ev
FNDA:4,_ZNSt6vectorIN9sharedLib8PlatformESaIS1_EED2Ev
FN:675,_ZNSt6vectorIN9sharedLib8PlaylistESaIS1_EED2Ev
FNDA:7,_ZNSt6vectorIN9sharedLib8PlaylistESaIS1_EED2Ev
FN:808,_ZNSt6vectorIN9sharedLib7MessageESaIS1_EE5beginEv
FNDA:6,_ZNSt6vectorIN9sharedLib7MessageESaIS1_EE5beginEv
FN:808,_ZNSt6vectorIN9sharedLib8PlatformESaIS1_EE5beginEv
FNDA:1,_ZNSt6vectorIN9sharedLib8PlatformESaIS1_EE5beginEv
FN:808,_ZNSt6vectorIN9sharedLib4SongESaIS1_EE5beginEv
FNDA:10,_ZNSt6vectorIN9sharedLib4SongESaIS1_EE5beginEv
FN:808,_ZNSt6vectorIN9sharedLib8PlaylistESaIS1_EE5beginEv
FNDA:10,_ZNSt6vectorIN9sharedLib8PlaylistESaIS1_EE5beginEv
FN:817,_ZNKSt6vectorIN9sharedLib7MessageESaIS1_EE5beginEv
FNDA:0,_ZNKSt6vectorIN9sharedLib7MessageESaIS1_EE5beginEv
FN:817,_ZNKSt6vectorIN9sharedLib8PlaylistESaIS1_EE5beginEv
FNDA:3,_ZNKSt6vectorIN9sharedLib8PlaylistESaIS1_EE5beginEv
FN:817,_ZNKSt6vectorIN9sharedLib4SongESaIS1_EE5beginEv
FNDA:3,_ZNKSt6vectorIN9sharedLib4SongESaIS1_EE5beginEv
FN:817,_ZNKSt6vectorIN9sharedLib8PlatformESaIS1_EE5beginEv
FNDA:3,_ZNKSt6vectorIN9sharedLib8PlatformESaIS1_EE5beginEv
FN:826,_ZNSt6vectorIN9sharedLib4SongESaIS1_EE3endEv
FNDA:10,_ZNSt6vectorIN9sharedLib4SongESaIS1_EE3endEv
FN:826,_ZNSt6vectorIN9sharedLib7MessageESaIS1_EE3endEv
FNDA:6,_ZNSt6vectorIN9sharedLib7MessageESaIS1_EE3endEv
FN:826,_ZNSt6vectorIN9sharedLib8PlaylistESaIS1_EE3endEv
FNDA:10,_ZNSt6vectorIN9sharedLib8PlaylistESaIS1_EE3endEv
FN:826,_ZNSt6vectorIN9sharedLib8PlatformESaIS1_EE3endEv
FNDA:1,_ZNSt6vectorIN9sharedLib8PlatformESaIS1_EE3endEv
FN:835,_ZNKSt6vectorIN9sharedLib8PlatformESaIS1_EE3endEv
FNDA:3,_ZNKSt6vectorIN9sharedLib8PlatformESaIS1_EE3endEv
FN:835,_ZNKSt6vectorIN9sharedLib4SongESaIS1_EE3endEv
FNDA:3,_ZNKSt6vectorIN9sharedLib4SongESaIS1_EE3endEv
FN:835,_ZNKSt6vectorIN9sharedLib8PlaylistESaIS1_EE3endEv
FNDA:3,_ZNKSt6vectorIN9sharedLib8PlaylistESaIS1_EE3endEv
FN:835,_ZNKSt6vectorIN9sharedLib7MessageESaIS1_EE3endEv
FNDA:0,_ZNKSt6vectorIN9sharedLib7MessageESaIS1_EE3endEv
FN:915,_ZNKSt6vectorIN9sharedLib8PlatformESaIS1_EE4sizeEv
FNDA:8,_ZNKSt6vectorIN9sharedLib8PlatformESaIS1_EE4sizeEv
FN:915,_ZNKSt6vectorIN9sharedLib7MessageESaIS1_EE4sizeEv
FNDA:5,_ZNKSt6vectorIN9sharedLib7MessageESaIS1_EE4sizeEv
FN:915,_ZNKSt6vectorIN9sharedLib8PlaylistESaIS1_EE4sizeEv
FNDA:32,_ZNKSt6vectorIN9sharedLib8PlaylistESaIS1_EE4sizeEv
FN:915,_ZNKSt6vectorIN9sharedLib4SongESaIS1_EE4sizeEv
FNDA:32,_ZNKSt6vectorIN9sharedLib4SongESaIS1_EE4sizeEv
FN:920,_ZNKSt6vectorIN9sharedLib7MessageESaIS1_EE8max_sizeEv
FNDA:2,_ZNKSt6vectorIN9sharedLib7MessageESaIS1_EE8max_sizeEv
FN:995,_ZNKSt6vectorIN9sharedLib4SongESaIS1_EE8capacityEv
FNDA:1,_ZNKSt6vectorIN9sharedLib4SongESaIS1_EE8capacityEv
FN:995,_ZNKSt6vectorIN9sharedLib8PlatformESaIS1_EE8capacityEv
FNDA:1,_ZNKSt6vectorIN9sharedLib8PlatformESaIS1_EE8capacityEv
FN:995,_ZNKSt6vectorIN9sharedLib8PlaylistESaIS1_EE8capacityEv
FNDA:1,_ZNKSt6vectorIN9sharedLib8PlaylistESaIS1_EE8capacityEv
FN:995,_ZNKSt6vectorIN9sharedLib7MessageESaIS1_EE8capacityEv
FNDA:0,_ZNKSt6vectorIN9sharedLib7MessageESaIS1_EE8capacityEv
FN:1184,_ZNSt6vectorIN9sharedLib7MessageESaIS1_EE9push_backERKS1_
FNDA:2,_ZNSt6vectorIN9sharedLib7MessageESaIS1_EE9push_backERKS1_
FN:1495,_ZNSt6vectorIN9sharedLib8PlatformESaIS1_EE5clearEv
FNDA:0,_ZNSt6vectorIN9sharedLib8PlatformESaIS1_EE5clearEv
FN:1495,_ZNSt6vectorIN9sharedLib7MessageESaIS1_EE5clearEv
FNDA:1,_ZNSt6vectorIN9sharedLib7MessageESaIS1_EE5clearEv
FN:1495,_ZNSt6vectorIN9sharedLib4SongESaIS1_EE5clearEv
FNDA:0,_ZNSt6vectorIN9sharedLib4SongESaIS1_EE5clearEv
FN:1495,_ZNSt6vectorIN9sharedLib8PlaylistESaIS1_EE5clearEv
FNDA:0,_ZNSt6vectorIN9sharedLib8PlaylistESaIS1_EE5clearEv
FN:1505,_ZNSt6vectorIN9sharedLib4SongESaIS1_EE20_M_allocate_and_copyIN9__gnu_cxx17__normal_iteratorIPKS1_S3_EEEEPS1_mT_SB_
FNDA:1,_ZNSt6vectorIN9sharedLib4SongESaIS1_EE20_M_allocate_and_copyIN9__gnu_cxx17__normal_iteratorIPKS1_S3_EEEEPS1_mT_SB_
FN:1505,_ZNSt6vectorIN9sharedLib8PlaylistESaIS1_EE20_M_allocate_and_copyIN9__gnu_cxx17__normal_iteratorIPKS1_S3_EEEEPS1_mT_SB_
FNDA:1,_ZNSt6vectorIN9sharedLib8PlaylistESaIS1_EE20_M_allocate_and_copyIN9__gnu_cxx17__normal_iteratorIPKS1_S3_EEEEPS1_mT_SB_
FN:1505,_ZNSt6vectorIN9sharedLib8PlatformESaIS1_EE20_M_allocate_and_copyIN9__gnu_cxx17__normal_iteratorIPKS1_S3_EEEEPS1_mT_SB_
FNDA:1,_ZNSt6vectorIN9sharedLib8PlatformESaIS1_EE20_M_allocate_and_copyIN9__gnu_cxx17__normal_iteratorIPKS1_S3_EEEEPS1_mT_SB_
FN:1505,_ZNSt6vectorIN9sharedLib7MessageESaIS1_EE20_M_allocate_and_copyIN9__gnu_cxx17__normal_iteratorIPKS1_S3_EEEEPS1_mT_SB_
FNDA:0,_ZNSt6vectorIN9sharedLib7MessageESaIS1_EE20_M_allocate_and_copyIN9__gnu_cxx17__normal_iteratorIPKS1_S3_EEEEPS1_mT_SB_
FN:1753,_ZNKSt6vectorIN9sharedLib7MessageESaIS1_EE12_M_check_lenEmPKc
FNDA:1,_ZNKSt6vectorIN9sharedLib7MessageESaIS1_EE12_M_check_lenEmPKc
FN:1773,_ZNSt6vectorIN9sharedLib7MessageESaIS1_EE11_S_max_sizeERKS2_
FNDA:2,_ZNSt6vectorIN9sharedLib7MessageESaIS1_EE11_S_max_sizeERKS2_
FN:1789,_ZNSt6vectorIN9sharedLib8PlaylistESaIS1_EE15_M_erase_at_endEPS1_
FNDA:0,_ZNSt6vectorIN9sharedLib8PlaylistESaIS1_EE15_M_erase_at_endEPS1_
FN:1789,_ZNSt6vectorIN9sharedLib4SongESaIS1_EE15_M_erase_at_endEPS1_
FNDA:0,_ZNSt6vectorIN9sharedLib4SongESaIS1_EE15_M_erase_at_endEPS1_
FN:1789,_ZNSt6vectorIN9sharedLib8PlatformESaIS1_EE15_M_erase_at_endEPS1_
FNDA:0,_ZNSt6vectorIN9sharedLib8PlatformESaIS1_EE15_M_erase_at_endEPS1_
FN:1789,_ZNSt6vectorIN9sharedLib7MessageESaIS1_EE15_M_erase_at_endEPS1_
FNDA:1,_ZNSt6vectorIN9sharedLib7MessageESaIS1_EE15_M_erase_at_endEPS1_
DA:94,1
DA:95,1
DA:96,1
DA:94,4
DA:95,4
DA:96,4
DA:94,7
DA:95,7
DA:96,7
DA:94,7
DA:95,7
DA:96,7
DA:99,0
DA:100,0
DA:101,0
DA:102,0
DA:99,0
DA:100,0
DA:101,0
DA:102,0
DA:99,0
DA:100,0
DA:101,0
DA:102,0
DA:128,1
DA:130,1
DA:131,1
DA:128,2
DA:130,2
DA:131,2
DA:128,5
DA:130,5
DA:131,5
DA:128,5
DA:130,5
DA:131,5
DA:133,2
DA:134,2
DA:135,2
DA:133,2
DA:134,2
DA:135,2
DA:133,2
DA:134,2
DA:135,2
DA:140,0
DA:141,0
DA:142,0
DA:140,0
DA:141,0
DA:142,0
DA:140,0
DA:141,0
DA:142,0
DA:273,4
DA:274,4
DA:273,10
DA:274,10
DA:273,25
DA:274,25
DA:273,25
DA:274,25
DA:277,4
DA:278,4
DA:277,16
DA:278,16
DA:277,16
DA:278,16
DA:277,2
DA:278,2
DA:285,1
DA:285,2
DA:285,5
DA:285,5
DA:300,2
DA:301,2
DA:302,2
DA:300,2
DA:301,2
DA:302,2
DA:300,2
DA:301,2
DA:302,2
DA:305,0
DA:305,0
DA:305,0
DA:330,1
DA:332,1
DA:333,1
DA:334,1
DA:330,4
DA:332,4
DA:333,4
DA:334,4
DA:330,7
DA:332,7
DA:333,7
DA:334,7
DA:330,7
DA:332,7
DA:333,7
DA:334,7
DA:340,4
DA:343,4
DA:340,10
DA:343,10
DA:340,10
DA:343,10
DA:340,1
DA:343,1
DA:347,2
DA:350,2
DA:351,1
DA:352,2
DA:347,6
DA:350,6
DA:351,4
DA:352,6
DA:347,15
DA:350,15
DA:351,10
DA:352,15
DA:347,15
DA:350,15
DA:351,10
DA:352,15
DA:356,2
DA:358,2
DA:359,2
DA:360,2
DA:361,2
DA:356,2
DA:358,2
DA:359,2
DA:360,2
DA:361,2
DA:356,2
DA:358,2
DA:359,2
DA:360,2
DA:361,2
DA:428,2
DA:433,2
DA:441,2
DA:446,2
DA:450,2
DA:453,2
DA:462,2
DA:466,2
DA:484,1
DA:484,2
DA:484,5
DA:484,5
DA:550,2
DA:552,2
DA:554,2
DA:555,2
DA:557,2
DA:558,2
DA:550,2
DA:552,2
DA:554,2
DA:555,2
DA:557,2
DA:558,2
DA:550,2
DA:552,2
DA:554,2
DA:555,2
DA:557,2
DA:558,2
DA:569,0
DA:569,0
DA:569,0
DA:675,1
DA:677,1
DA:678,1
DA:680,1
DA:675,4
DA:677,4
DA:678,4
DA:680,4
DA:675,7
DA:677,7
DA:678,7
DA:680,7
DA:675,7
DA:677,7
DA:678,7
DA:680,7
DA:808,1
DA:809,1
DA:808,10
DA:809,10
DA:808,10
DA:809,10
DA:808,6
DA:809,6
DA:817,3
DA:818,3
DA:817,3
DA:818,3
DA:817,3
DA:818,3
DA:817,0
DA:818,0
DA:826,1
DA:827,1
DA:826,10
DA:827,10
DA:826,10
DA:827,10
DA:826,6
DA:827,6
DA:835,3
DA:836,3
DA:835,3
DA:836,3
DA:835,3
DA:836,3
DA:835,0
DA:836,0
DA:915,8
DA:916,8
DA:915,32
DA:916,32
DA:915,32
DA:916,32
DA:915,5
DA:916,5
DA:920,2
DA:921,2
DA:995,1
DA:996,1
DA:997,1
DA:995,1
DA:996,1
DA:997,1
DA:995,1
DA:996,1
DA:997,1
DA:995,0
DA:996,0
DA:997,0
DA:1184,2
DA:1186,2
DA:1189,1
DA:1191,1
DA:1195,1
DA:1196,2
DA:1495,0
DA:1496,0
DA:1495,0
DA:1496,0
DA:1495,0
DA:1496,0
DA:1495,1
DA:1496,1
DA:1505,1
DA:1508,1
DA:1511,1
DA:1512,1
DA:1513,1
DA:1515,0
DA:1517,0
DA:1518,0
DA:1505,1
DA:1508,1
DA:1511,1
DA:1512,1
DA:1513,1
DA:1515,0
DA:1517,0
DA:1518,0
DA:1505,1
DA:1508,1
DA:1511,1
DA:1512,1
DA:1513,1
DA:1515,0
DA:1517,0
DA:1518,0
DA:1505,0
DA:1508,0
DA:1511,0
DA:1512,0
DA:1513,0
DA:1515,0
DA:1517,0
DA:1518,0
DA:1753,1
DA:1755,1
DA:1756,0
DA:1758,1
DA:1759,1
DA:1773,2
DA:1778,2
DA:1780,2
DA:1781,2
DA:1789,0
DA:1791,0
DA:1793,0
DA:1794,0
DA:1795,0
DA:1798,0
DA:1789,0
DA:1791,0
DA:1793,0
DA:1794,0
DA:1795,0
DA:1798,0
DA:1789,0
DA:1791,0
DA:1793,0
DA:1794,0
DA:1795,0
DA:1798,0
DA:1789,1
DA:1791,1
DA:1793,1
DA:1794,1
DA:1795,1
DA:1798,1
end_of_record
SF:/home/aint/park/tempMusicial/Musicial/qt/lib/mainlib.h
FN:44,_ZN6client12MessageGroup6sendDBEv
FNDA:1,_ZN6client12MessageGroup6sendDBEv
FN:59,_ZN6client12MessageGroup5getDBEv
FNDA:0,_ZN6client12MessageGroup5getDBEv
DA:44,1
DA:59,0
end_of_record
SF:/usr/include/c++/9/ext/new_allocator.h
FN:80,_ZN9__gnu_cxx13new_allocatorIcEC2Ev
FNDA:0,_ZN9__gnu_cxx13new_allocatorIcEC2Ev
FN:80,_ZN9__gnu_cxx13new_allocatorIN9sharedLib8PlaylistEEC2Ev
FNDA:5,_ZN9__gnu_cxx13new_allocatorIN9sharedLib8PlaylistEEC2Ev
FN:80,_ZN9__gnu_cxx13new_allocatorIN9sharedLib4SongEEC2Ev
FNDA:5,_ZN9__gnu_cxx13new_allocatorIN9sharedLib4SongEEC2Ev
FN:80,_ZN9__gnu_cxx13new_allocatorIN9sharedLib8PlatformEEC2Ev
FNDA:2,_ZN9__gnu_cxx13new_allocatorIN9sharedLib8PlatformEEC2Ev
FN:80,_ZN9__gnu_cxx13new_allocatorIN9sharedLib7MessageEEC2Ev
FNDA:1,_ZN9__gnu_cxx13new_allocatorIN9sharedLib7MessageEEC2Ev
FN:83,_ZN9__gnu_cxx13new_allocatorIN9sharedLib8PlatformEEC2ERKS3_
FNDA:4,_ZN9__gnu_cxx13new_allocatorIN9sharedLib8PlatformEEC2ERKS3_
FN:83,_ZN9__gnu_cxx13new_allocatorIcEC2ERKS1_
FNDA:0,_ZN9__gnu_cxx13new_allocatorIcEC2ERKS1_
FN:83,_ZN9__gnu_cxx13new_allocatorIN9sharedLib4SongEEC2ERKS3_
FNDA:4,_ZN9__gnu_cxx13new_allocatorIN9sharedLib4SongEEC2ERKS3_
FN:83,_ZN9__gnu_cxx13new_allocatorIN9sharedLib8PlaylistEEC2ERKS3_
FNDA:4,_ZN9__gnu_cxx13new_allocatorIN9sharedLib8PlaylistEEC2ERKS3_
FN:89,_ZN9__gnu_cxx13new_allocatorIN9sharedLib8PlaylistEED2Ev
FNDA:9,_ZN9__gnu_cxx13new_allocatorIN9sharedLib8PlaylistEED2Ev
FN:89,_ZN9__gnu_cxx13new_allocatorIN9sharedLib4SongEED2Ev
FNDA:9,_ZN9__gnu_cxx13new_allocatorIN9sharedLib4SongEED2Ev
FN:89,_ZN9__gnu_cxx13new_allocatorIN9sharedLib8PlatformEED2Ev
FNDA:6,_ZN9__gnu_cxx13new_allocatorIN9sharedLib8PlatformEED2Ev
FN:89,_ZN9__gnu_cxx13new_allocatorIN9sharedLib7MessageEED2Ev
FNDA:1,_ZN9__gnu_cxx13new_allocatorIN9sharedLib7MessageEED2Ev
FN:89,_ZN9__gnu_cxx13new_allocatorIcED2Ev
FNDA:0,_ZN9__gnu_cxx13new_allocatorIcED2Ev
FN:102,_ZN9__gnu_cxx13new_allocatorIN9sharedLib8PlatformEE8allocateEmPKv
FNDA:4,_ZN9__gnu_cxx13new_allocatorIN9sharedLib8PlatformEE8allocateEmPKv
FN:102,_ZN9__gnu_cxx13new_allocatorIN9sharedLib7MessageEE8allocateEmPKv
FNDA:1,_ZN9__gnu_cxx13new_allocatorIN9sharedLib7MessageEE8allocateEmPKv
FN:102,_ZN9__gnu_cxx13new_allocatorIN9sharedLib8PlaylistEE8allocateEmPKv
FNDA:10,_ZN9__gnu_cxx13new_allocatorIN9sharedLib8PlaylistEE8allocateEmPKv
FN:102,_ZN9__gnu_cxx13new_allocatorIN9sharedLib4SongEE8allocateEmPKv
FNDA:10,_ZN9__gnu_cxx13new_allocatorIN9sharedLib4SongEE8allocateEmPKv
FN:119,_ZN9__gnu_cxx13new_allocatorIN9sharedLib4SongEE10deallocateEPS2_m
FNDA:10,_ZN9__gnu_cxx13new_allocatorIN9sharedLib4SongEE10deallocateEPS2_m
FN:119,_ZN9__gnu_cxx13new_allocatorIN9sharedLib8PlaylistEE10deallocateEPS2_m
FNDA:10,_ZN9__gnu_cxx13new_allocatorIN9sharedLib8PlaylistEE10deallocateEPS2_m
FN:119,_ZN9__gnu_cxx13new_allocatorIN9sharedLib8PlatformEE10deallocateEPS2_m
FNDA:4,_ZN9__gnu_cxx13new_allocatorIN9sharedLib8PlatformEE10deallocateEPS2_m
FN:119,_ZN9__gnu_cxx13new_allocatorIN9sharedLib7MessageEE10deallocateEPS2_m
FNDA:1,_ZN9__gnu_cxx13new_allocatorIN9sharedLib7MessageEE10deallocateEPS2_m
FN:132,_ZNK9__gnu_cxx13new_allocatorIN9sharedLib8PlaylistEE8max_sizeEv
FNDA:24,_ZNK9__gnu_cxx13new_allocatorIN9sharedLib8PlaylistEE8max_sizeEv
FN:132,_ZNK9__gnu_cxx13new_allocatorIN9sharedLib4SongEE8max_sizeEv
FNDA:24,_ZNK9__gnu_cxx13new_allocatorIN9sharedLib4SongEE8max_sizeEv
FN:132,_ZNK9__gnu_cxx13new_allocatorIN9sharedLib8PlatformEE8max_sizeEv
FNDA:6,_ZNK9__gnu_cxx13new_allocatorIN9sharedLib8PlatformEE8max_sizeEv
FN:132,_ZNK9__gnu_cxx13new_allocatorIN9sharedLib7MessageEE8max_sizeEv
FNDA:3,_ZNK9__gnu_cxx13new_allocatorIN9sharedLib7MessageEE8max_sizeEv
FN:144,_ZN9__gnu_cxx13new_allocatorIN9sharedLib7MessageEE9constructIS2_JS2_EEEvPT_DpOT0_
FNDA:0,_ZN9__gnu_cxx13new_allocatorIN9sharedLib7MessageEE9constructIS2_JS2_EEEvPT_DpOT0_
FN:144,_ZN9__gnu_cxx13new_allocatorIN9sharedLib7MessageEE9constructIS2_JRKS2_EEEvPT_DpOT0_
FNDA:2,_ZN9__gnu_cxx13new_allocatorIN9sharedLib7MessageEE9constructIS2_JRKS2_EEEvPT_DpOT0_
FN:150,_ZN9__gnu_cxx13new_allocatorIN9sharedLib7MessageEE7destroyIS2_EEvPT_
FNDA:0,_ZN9__gnu_cxx13new_allocatorIN9sharedLib7MessageEE7destroyIS2_EEvPT_
DA:80,1
DA:80,2
DA:80,5
DA:80,5
DA:80,0
DA:83,4
DA:83,4
DA:83,4
DA:83,0
DA:89,1
DA:89,6
DA:89,9
DA:89,9
DA:89,0
DA:102,4
DA:104,4
DA:105,0
DA:114,4
DA:102,10
DA:104,10
DA:105,0
DA:114,10
DA:102,10
DA:104,10
DA:105,0
DA:114,10
DA:102,1
DA:104,1
DA:105,0
DA:114,1
DA:119,1
DA:128,1
DA:129,1
DA:119,4
DA:128,4
DA:129,4
DA:119,10
DA:128,10
DA:129,10
DA:119,10
DA:128,10
DA:129,10
DA:132,6
DA:135,6
DA:132,24
DA:135,24
DA:132,24
DA:135,24
DA:132,3
DA:135,3
DA:144,0
DA:146,0
DA:144,2
DA:146,2
DA:150,0
DA:152,0
end_of_record
SF:/usr/include/c++/9/bits/stl_construct.h
FN:74,_ZSt10_ConstructIN9sharedLib4SongEJRKS1_EEvPT_DpOT0_
FNDA:2,_ZSt10_ConstructIN9sharedLib4SongEJRKS1_EEvPT_DpOT0_
FN:74,_ZSt10_ConstructIN9sharedLib8PlaylistEJRKS1_EEvPT_DpOT0_
FNDA:2,_ZSt10_ConstructIN9sharedLib8PlaylistEJRKS1_EEvPT_DpOT0_
FN:74,_ZSt10_ConstructIN9sharedLib7MessageEJRKS1_EEvPT_DpOT0_
FNDA:0,_ZSt10_ConstructIN9sharedLib7MessageEJRKS1_EEvPT_DpOT0_
FN:74,_ZSt10_ConstructIN9sharedLib4SongEJRS1_EEvPT_DpOT0_
FNDA:0,_ZSt10_ConstructIN9sharedLib4SongEJRS1_EEvPT_DpOT0_
FN:74,_ZSt10_ConstructIN9sharedLib8PlaylistEJRS1_EEvPT_DpOT0_
FNDA:0,_ZSt10_ConstructIN9sharedLib8PlaylistEJRS1_EEvPT_DpOT0_
FN:74,_ZSt10_ConstructIN9sharedLib7MessageEJRS1_EEvPT_DpOT0_
FNDA:0,_ZSt10_ConstructIN9sharedLib7MessageEJRS1_EEvPT_DpOT0_
FN:74,_ZSt10_ConstructIN9sharedLib7MessageEJS1_EEvPT_DpOT0_
FNDA:0,_ZSt10_ConstructIN9sharedLib7MessageEJS1_EEvPT_DpOT0_
FN:97,_ZSt8_DestroyIN9sharedLib7MessageEEvPT_
FNDA:2,_ZSt8_DestroyIN9sharedLib7MessageEEvPT_
FN:97,_ZSt8_DestroyIN9sharedLib4SongEEvPT_
FNDA:9,_ZSt8_DestroyIN9sharedLib4SongEEvPT_
FN:97,_ZSt8_DestroyIN9sharedLib8PlaylistEEvPT_
FNDA:9,_ZSt8_DestroyIN9sharedLib8PlaylistEEvPT_
FN:105,_ZNSt12_Destroy_auxILb0EE9__destroyIPN9sharedLib8PlaylistEEEvT_S5_
FNDA:8,_ZNSt12_Destroy_auxILb0EE9__destroyIPN9sharedLib8PlaylistEEEvT_S5_
FN:105,_ZNSt12_Destroy_auxILb0EE9__destroyIPN9sharedLib4SongEEEvT_S5_
FNDA:8,_ZNSt12_Destroy_auxILb0EE9__destroyIPN9sharedLib4SongEEEvT_S5_
FN:105,_ZNSt12_Destroy_auxILb0EE9__destroyIPN9sharedLib7MessageEEEvT_S5_
FNDA:2,_ZNSt12_Destroy_auxILb0EE9__destroyIPN9sharedLib7MessageEEEvT_S5_
FN:105,_ZNSt12_Destroy_auxILb0EE9__destroyIN9__gnu_cxx17__normal_iteratorIPN9sharedLib8PlaylistESt6vectorIS5_SaIS5_EEEEEEvT_SB_
FNDA:0,_ZNSt12_Destroy_auxILb0EE9__destroyIN9__gnu_cxx17__normal_iteratorIPN9sharedLib8PlaylistESt6vectorIS5_SaIS5_EEEEEEvT_SB_
FN:105,_ZNSt12_Destroy_auxILb0EE9__destroyIN9__gnu_cxx17__normal_iteratorIPN9sharedLib4SongESt6vectorIS5_SaIS5_EEEEEEvT_SB_
FNDA:0,_ZNSt12_Destroy_auxILb0EE9__destroyIN9__gnu_cxx17__normal_iteratorIPN9sharedLib4SongESt6vectorIS5_SaIS5_EEEEEEvT_SB_
FN:105,_ZNSt12_Destroy_auxILb0EE9__destroyIN9__gnu_cxx17__normal_iteratorIPN9sharedLib7MessageESt6vectorIS5_SaIS5_EEEEEEvT_SB_
FNDA:0,_ZNSt12_Destroy_auxILb0EE9__destroyIN9__gnu_cxx17__normal_iteratorIPN9sharedLib7MessageESt6vectorIS5_SaIS5_EEEEEEvT_SB_
FN:117,_ZNSt12_Destroy_auxILb1EE9__destroyIPN9sharedLib8PlatformEEEvT_S5_
FNDA:5,_ZNSt12_Destroy_auxILb1EE9__destroyIPN9sharedLib8PlatformEEEvT_S5_
FN:117,_ZNSt12_Destroy_auxILb1EE9__destroyIN9__gnu_cxx17__normal_iteratorIPN9sharedLib8PlatformESt6vectorIS5_SaIS5_EEEEEEvT_SB_
FNDA:0,_ZNSt12_Destroy_auxILb1EE9__destroyIN9__gnu_cxx17__normal_iteratorIPN9sharedLib8PlatformESt6vectorIS5_SaIS5_EEEEEEvT_SB_
FN:127,_ZSt8_DestroyIPN9sharedLib8PlatformEEvT_S3_
FNDA:5,_ZSt8_DestroyIPN9sharedLib8PlatformEEvT_S3_
FN:127,_ZSt8_DestroyIPN9sharedLib8PlaylistEEvT_S3_
FNDA:8,_ZSt8_DestroyIPN9sharedLib8PlaylistEEvT_S3_
FN:127,_ZSt8_DestroyIPN9sharedLib4SongEEvT_S3_
FNDA:8,_ZSt8_DestroyIPN9sharedLib4SongEEvT_S3_
FN:127,_ZSt8_DestroyIPN9sharedLib7MessageEEvT_S3_
FNDA:2,_ZSt8_DestroyIPN9sharedLib7MessageEEvT_S3_
FN:127,_ZSt8_DestroyIN9__gnu_cxx17__normal_iteratorIPN9sharedLib7MessageESt6vectorIS3_SaIS3_EEEEEvT_S9_
FNDA:0,_ZSt8_DestroyIN9__gnu_cxx17__normal_iteratorIPN9sharedLib7MessageESt6vectorIS3_SaIS3_EEEEEvT_S9_
FN:127,_ZSt8_DestroyIN9__gnu_cxx17__normal_iteratorIPN9sharedLib8PlaylistESt6vectorIS3_SaIS3_EEEEEvT_S9_
FNDA:0,_ZSt8_DestroyIN9__gnu_cxx17__normal_iteratorIPN9sharedLib8PlaylistESt6vectorIS3_SaIS3_EEEEEvT_S9_
FN:127,_ZSt8_DestroyIN9__gnu_cxx17__normal_iteratorIPN9sharedLib4SongESt6vectorIS3_SaIS3_EEEEEvT_S9_
FNDA:0,_ZSt8_DestroyIN9__gnu_cxx17__normal_iteratorIPN9sharedLib4SongESt6vectorIS3_SaIS3_EEEEEvT_S9_
FN:127,_ZSt8_DestroyIN9__gnu_cxx17__normal_iteratorIPN9sharedLib8PlatformESt6vectorIS3_SaIS3_EEEEEvT_S9_
FNDA:0,_ZSt8_DestroyIN9__gnu_cxx17__normal_iteratorIPN9sharedLib8PlatformESt6vectorIS3_SaIS3_EEEEEvT_S9_
FN:203,_ZSt8_DestroyIN9__gnu_cxx17__normal_iteratorIPN9sharedLib8PlatformESt6vectorIS3_SaIS3_EEEES3_EvT_S9_RSaIT0_E
FNDA:0,_ZSt8_DestroyIN9__gnu_cxx17__normal_iteratorIPN9sharedLib8PlatformESt6vectorIS3_SaIS3_EEEES3_EvT_S9_RSaIT0_E
FN:203,_ZSt8_DestroyIN9__gnu_cxx17__normal_iteratorIPN9sharedLib4SongESt6vectorIS3_SaIS3_EEEES3_EvT_S9_RSaIT0_E
FNDA:0,_ZSt8_DestroyIN9__gnu_cxx17__normal_iteratorIPN9sharedLib4SongESt6vectorIS3_SaIS3_EEEES3_EvT_S9_RSaIT0_E
FN:203,_ZSt8_DestroyIN9__gnu_cxx17__normal_iteratorIPN9sharedLib8PlaylistESt6vectorIS3_SaIS3_EEEES3_EvT_S9_RSaIT0_E
FNDA:0,_ZSt8_DestroyIN9__gnu_cxx17__normal_iteratorIPN9sharedLib8PlaylistESt6vectorIS3_SaIS3_EEEES3_EvT_S9_RSaIT0_E
FN:203,_ZSt8_DestroyIN9__gnu_cxx17__normal_iteratorIPN9sharedLib7MessageESt6vectorIS3_SaIS3_EEEES3_EvT_S9_RSaIT0_E
FNDA:0,_ZSt8_DestroyIN9__gnu_cxx17__normal_iteratorIPN9sharedLib7MessageESt6vectorIS3_SaIS3_EEEES3_EvT_S9_RSaIT0_E
FN:203,_ZSt8_DestroyIPN9sharedLib7MessageES1_EvT_S3_RSaIT0_E
FNDA:2,_ZSt8_DestroyIPN9sharedLib7MessageES1_EvT_S3_RSaIT0_E
FN:203,_ZSt8_DestroyIPN9sharedLib8PlatformES1_EvT_S3_RSaIT0_E
FNDA:5,_ZSt8_DestroyIPN9sharedLib8PlatformES1_EvT_S3_RSaIT0_E
FN:203,_ZSt8_DestroyIPN9sharedLib4SongES1_EvT_S3_RSaIT0_E
FNDA:8,_ZSt8_DestroyIPN9sharedLib4SongES1_EvT_S3_RSaIT0_E
FN:203,_ZSt8_DestroyIPN9sharedLib8PlaylistES1_EvT_S3_RSaIT0_E
FNDA:8,_ZSt8_DestroyIPN9sharedLib8PlaylistES1_EvT_S3_RSaIT0_E
DA:74,0
DA:75,0
DA:74,2
DA:75,2
DA:74,2
DA:75,2
DA:74,0
DA:75,0
DA:74,0
DA:75,0
DA:74,0
DA:75,0
DA:74,0
DA:75,0
DA:97,2
DA:98,2
DA:97,9
DA:98,9
DA:97,9
DA:98,9
DA:105,0
DA:107,0
DA:108,0
DA:109,0
DA:105,0
DA:107,0
DA:108,0
DA:109,0
DA:105,0
DA:107,0
DA:108,0
DA:109,0
DA:105,4
DA:107,4
DA:108,2
DA:109,2
DA:105,17
DA:107,17
DA:108,9
DA:109,8
DA:105,17
DA:107,17
DA:108,9
DA:109,8
DA:117,0
DA:117,5
DA:127,0
DA:137,0
DA:138,0
DA:127,0
DA:137,0
DA:138,0
DA:127,0
DA:137,0
DA:138,0
DA:127,0
DA:137,0
DA:138,0
DA:127,2
DA:137,2
DA:138,2
DA:127,5
DA:137,5
DA:138,5
DA:127,8
DA:137,8
DA:138,8
DA:127,8
DA:137,8
DA:138,8
DA:203,0
DA:206,0
DA:207,0
DA:203,0
DA:206,0
DA:207,0
DA:203,0
DA:206,0
DA:207,0
DA:203,0
DA:206,0
DA:207,0
DA:203,2
DA:206,2
DA:207,2
DA:203,5
DA:206,5
DA:207,5
DA:203,8
DA:206,8
DA:207,8
DA:203,8
DA:206,8
DA:207,8
end_of_record
SF:/usr/include/c++/9/ext/alloc_traits.h
FN:97,_ZN9__gnu_cxx14__alloc_traitsISaIN9sharedLib8PlatformEES2_E17_S_select_on_copyERKS3_
FNDA:2,_ZN9__gnu_cxx14__alloc_traitsISaIN9sharedLib8PlatformEES2_E17_S_select_on_copyERKS3_
FN:97,_ZN9__gnu_cxx14__alloc_traitsISaIN9sharedLib4SongEES2_E17_S_select_on_copyERKS3_
FNDA:2,_ZN9__gnu_cxx14__alloc_traitsISaIN9sharedLib4SongEES2_E17_S_select_on_copyERKS3_
FN:97,_ZN9__gnu_cxx14__alloc_traitsISaIN9sharedLib8PlaylistEES2_E17_S_select_on_copyERKS3_
FNDA:2,_ZN9__gnu_cxx14__alloc_traitsISaIN9sharedLib8PlaylistEES2_E17_S_select_on_copyERKS3_
FN:97,_ZN9__gnu_cxx14__alloc_traitsISaIcEcE17_S_select_on_copyERKS1_
FNDA:0,_ZN9__gnu_cxx14__alloc_traitsISaIcEcE17_S_select_on_copyERKS1_
FN:103,_ZN9__gnu_cxx14__alloc_traitsISaIN9sharedLib8PlatformEES2_E27_S_propagate_on_copy_assignEv
FNDA:1,_ZN9__gnu_cxx14__alloc_traitsISaIN9sharedLib8PlatformEES2_E27_S_propagate_on_copy_assignEv
FN:103,_ZN9__gnu_cxx14__alloc_traitsISaIN9sharedLib4SongEES2_E27_S_propagate_on_copy_assignEv
FNDA:1,_ZN9__gnu_cxx14__alloc_traitsISaIN9sharedLib4SongEES2_E27_S_propagate_on_copy_assignEv
FN:103,_ZN9__gnu_cxx14__alloc_traitsISaIN9sharedLib8PlaylistEES2_E27_S_propagate_on_copy_assignEv
FNDA:1,_ZN9__gnu_cxx14__alloc_traitsISaIN9sharedLib8PlaylistEES2_E27_S_propagate_on_copy_assignEv
FN:103,_ZN9__gnu_cxx14__alloc_traitsISaIN9sharedLib7MessageEES2_E27_S_propagate_on_copy_assignEv
FNDA:0,_ZN9__gnu_cxx14__alloc_traitsISaIN9sharedLib7MessageEES2_E27_S_propagate_on_copy_assignEv
FN:112,_ZN9__gnu_cxx14__alloc_traitsISaIN9sharedLib8PlatformEES2_E15_S_always_equalEv
FNDA:0,_ZN9__gnu_cxx14__alloc_traitsISaIN9sharedLib8PlatformEES2_E15_S_always_equalEv
FN:112,_ZN9__gnu_cxx14__alloc_traitsISaIN9sharedLib4SongEES2_E15_S_always_equalEv
FNDA:0,_ZN9__gnu_cxx14__alloc_traitsISaIN9sharedLib4SongEES2_E15_S_always_equalEv
FN:112,_ZN9__gnu_cxx14__alloc_traitsISaIN9sharedLib8PlaylistEES2_E15_S_always_equalEv
FNDA:0,_ZN9__gnu_cxx14__alloc_traitsISaIN9sharedLib8PlaylistEES2_E15_S_always_equalEv
FN:112,_ZN9__gnu_cxx14__alloc_traitsISaIN9sharedLib7MessageEES2_E15_S_always_equalEv
FNDA:0,_ZN9__gnu_cxx14__alloc_traitsISaIN9sharedLib7MessageEES2_E15_S_always_equalEv
DA:97,2
DA:98,2
DA:97,2
DA:98,2
DA:97,2
DA:98,2
DA:97,0
DA:98,0
DA:103,1
DA:104,1
DA:103,1
DA:104,1
DA:103,1
DA:104,1
DA:103,0
DA:104,0
DA:112,0
DA:113,0
DA:112,0
DA:113,0
DA:112,0
DA:113,0
DA:112,0
DA:113,0
end_of_record
SF:/usr/include/c++/9/bits/vector.tcc
FN:198,_ZNSt6vectorIN9sharedLib8PlatformESaIS1_EEaSERKS3_
FNDA:1,_ZNSt6vectorIN9sharedLib8PlatformESaIS1_EEaSERKS3_
FN:198,_ZNSt6vectorIN9sharedLib4SongESaIS1_EEaSERKS3_
FNDA:1,_ZNSt6vectorIN9sharedLib4SongESaIS1_EEaSERKS3_
FN:198,_ZNSt6vectorIN9sharedLib8PlaylistESaIS1_EEaSERKS3_
FNDA:1,_ZNSt6vectorIN9sharedLib8PlaylistESaIS1_EEaSERKS3_
FN:198,_ZNSt6vectorIN9sharedLib7MessageESaIS1_EEaSERKS3_
FNDA:0,_ZNSt6vectorIN9sharedLib7MessageESaIS1_EEaSERKS3_
FN:426,_ZNSt6vectorIN9sharedLib7MessageESaIS1_EE17_M_realloc_insertIJRKS1_EEEvN9__gnu_cxx17__normal_iteratorIPS1_S3_EEDpOT_
FNDA:1,_ZNSt6vectorIN9sharedLib7MessageESaIS1_EE17_M_realloc_insertIJRKS1_EEEvN9__gnu_cxx17__normal_iteratorIPS1_S3_EEDpOT_
DA:198,1
DA:201,1
DA:205,1
DA:207,0
DA:208,0
DA:211,0
DA:212,0
DA:213,0
DA:214,0
DA:215,0
DA:216,0
DA:217,0
DA:219,0
DA:223,1
DA:224,1
DA:226,1
DA:228,1
DA:229,1
DA:230,1
DA:231,1
DA:232,1
DA:233,1
DA:234,1
DA:236,0
DA:238,0
DA:239,0
DA:243,0
DA:245,0
DA:246,0
DA:248,0
DA:250,1
DA:252,1
DA:198,1
DA:201,1
DA:205,1
DA:207,0
DA:208,0
DA:211,0
DA:212,0
DA:213,0
DA:214,0
DA:215,0
DA:216,0
DA:217,0
DA:219,0
DA:223,1
DA:224,1
DA:226,1
DA:228,1
DA:229,1
DA:230,1
DA:231,1
DA:232,1
DA:233,1
DA:234,1
DA:236,0
DA:238,0
DA:239,0
DA:243,0
DA:245,0
DA:246,0
DA:248,0
DA:250,1
DA:252,1
DA:198,1
DA:201,1
DA:205,1
DA:207,0
DA:208,0
DA:211,0
DA:212,0
DA:213,0
DA:214,0
DA:215,0
DA:216,0
DA:217,0
DA:219,0
DA:223,1
DA:224,1
DA:226,1
DA:228,1
DA:229,1
DA:230,1
DA:231,1
DA:232,1
DA:233,1
DA:234,1
DA:236,0
DA:238,0
DA:239,0
DA:243,0
DA:245,0
DA:246,0
DA:248,0
DA:250,1
DA:252,1
DA:198,0
DA:201,0
DA:205,0
DA:207,0
DA:208,0
DA:211,0
DA:212,0
DA:213,0
DA:214,0
DA:215,0
DA:216,0
DA:217,0
DA:219,0
DA:223,0
DA:224,0
DA:226,0
DA:228,0
DA:229,0
DA:230,0
DA:231,0
DA:232,0
DA:233,0
DA:234,0
DA:236,0
DA:238,0
DA:239,0
DA:243,0
DA:245,0
DA:246,0
DA:248,0
DA:250,0
DA:252,0
DA:426,1
DA:435,1
DA:437,1
DA:438,1
DA:439,1
DA:440,1
DA:441,1
DA:449,1
DA:450,1
DA:456,1
DA:459,1
DA:461,1
DA:462,1
DA:464,1
DA:466,1
DA:467,1
DA:474,0
DA:475,0
DA:477,0
DA:481,0
DA:482,0
DA:485,0
DA:487,0
DA:488,0
DA:489,0
DA:491,0
DA:492,0
DA:493,0
DA:496,1
DA:498,0
DA:500,1
DA:501,1
DA:502,1
DA:503,1
DA:504,1
DA:505,1
end_of_record
SF:/usr/include/c++/9/ext/type_traits.h
FN:152,_ZN9__gnu_cxx17__is_null_pointerIcEEbPT_
FNDA:0,_ZN9__gnu_cxx17__is_null_pointerIcEEbPT_
FN:152,_ZN9__gnu_cxx17__is_null_pointerIKcEEbPT_
FNDA:0,_ZN9__gnu_cxx17__is_null_pointerIKcEEbPT_
DA:152,0
DA:153,0
DA:152,0
DA:153,0
end_of_record
SF:/usr/include/c++/9/bits/std_function.h
FN:87,_ZNSt9_Any_data9_M_accessEv
FNDA:8,_ZNSt9_Any_data9_M_accessEv
FN:88,_ZNKSt9_Any_data9_M_accessEv
FNDA:4,_ZNKSt9_Any_data9_M_accessEv
FN:92,_ZNSt9_Any_data9_M_accessIZN6client12MessageGroup7sendNetEvEUlRKN9sharedLib7MessageEE0_EERT_v
FNDA:0,_ZNSt9_Any_data9_M_accessIZN6client12MessageGroup7sendNetEvEUlRKN9sharedLib7MessageEE0_EERT_v
FN:92,_ZNSt9_Any_data9_M_accessIZN6client12MessageGroup7sendNetEvEUlRKN9sharedLib7MessageEE_EERT_v
FNDA:2,_ZNSt9_Any_data9_M_accessIZN6client12MessageGroup7sendNetEvEUlRKN9sharedLib7MessageEE_EERT_v
FN:92,_ZNSt9_Any_data9_M_accessIPKSt9type_infoEERT_v
FNDA:0,_ZNSt9_Any_data9_M_accessIPKSt9type_infoEERT_v
FN:92,_ZNSt9_Any_data9_M_accessIPZN6client12MessageGroup7sendNetEvEUlRKN9sharedLib7MessageEE0_EERT_v
FNDA:0,_ZNSt9_Any_data9_M_accessIPZN6client12MessageGroup7sendNetEvEUlRKN9sharedLib7MessageEE0_EERT_v
FN:92,_ZNSt9_Any_data9_M_accessIPZN6client12MessageGroup7sendNetEvEUlRKN9sharedLib7MessageEE_EERT_v
FNDA:0,_ZNSt9_Any_data9_M_accessIPZN6client12MessageGroup7sendNetEvEUlRKN9sharedLib7MessageEE_EERT_v
FN:97,_ZNKSt9_Any_data9_M_accessIZN6client12MessageGroup7sendNetEvEUlRKN9sharedLib7MessageEE0_EERKT_v
FNDA:0,_ZNKSt9_Any_data9_M_accessIZN6client12MessageGroup7sendNetEvEUlRKN9sharedLib7MessageEE0_EERKT_v
FN:97,_ZNKSt9_Any_data9_M_accessIZN6client12MessageGroup7sendNetEvEUlRKN9sharedLib7MessageEE_EERKT_v
FNDA:0,_ZNKSt9_Any_data9_M_accessIZN6client12MessageGroup7sendNetEvEUlRKN9sharedLib7MessageEE_EERKT_v
FN:151,_ZNSt14_Function_base13_Base_managerIZN6client12MessageGroup7sendNetEvEUlRKN9sharedLib7MessageEE0_E14_M_get_pointerERKSt9_Any_data
FNDA:0,_ZNSt14_Function_base13_Base_managerIZN6client12MessageGroup7sendNetEvEUlRKN9sharedLib7MessageEE0_E14_M_get_pointerERKSt9_Any_data
FN:151,_ZNSt14_Function_base13_Base_managerIZN6client12MessageGroup7sendNetEvEUlRKN9sharedLib7MessageEE_E14_M_get_pointerERKSt9_Any_data
FNDA:0,_ZNSt14_Function_base13_Base_managerIZN6client12MessageGroup7sendNetEvEUlRKN9sharedLib7MessageEE_E14_M_get_pointerERKSt9_Any_data
FN:165,_ZNSt14_Function_base13_Base_managerIZN6client12MessageGroup7sendNetEvEUlRKN9sharedLib7MessageEE_E8_M_cloneERSt9_Any_dataRKS9_St17integral_constantIbLb1EE
FNDA:0,_ZNSt14_Function_base13_Base_managerIZN6client12MessageGroup7sendNetEvEUlRKN9sharedLib7MessageEE_E8_M_cloneERSt9_Any_dataRKS9_St17integral_constantIbLb1EE
FN:165,_ZNSt14_Function_base13_Base_managerIZN6client12MessageGroup7sendNetEvEUlRKN9sharedLib7MessageEE0_E8_M_cloneERSt9_Any_dataRKS9_St17integral_constantIbLb1EE
FNDA:0,_ZNSt14_Function_base13_Base_managerIZN6client12MessageGroup7sendNetEvEUlRKN9sharedLib7MessageEE0_E8_M_cloneERSt9_Any_dataRKS9_St17integral_constantIbLb1EE
FN:182,_ZNSt14_Function_base13_Base_managerIZN6client12MessageGroup7sendNetEvEUlRKN9sharedLib7MessageEE_E10_M_destroyERSt9_Any_dataSt17integral_constantIbLb1EE
FNDA:2,_ZNSt14_Function_base13_Base_managerIZN6client12MessageGroup7sendNetEvEUlRKN9sharedLib7MessageEE_E10_M_destroyERSt9_Any_dataSt17integral_constantIbLb1EE
FN:182,_ZNSt14_Function_base13_Base_managerIZN6client12MessageGroup7sendNetEvEUlRKN9sharedLib7MessageEE0_E10_M_destroyERSt9_Any_dataSt17integral_constantIbLb1EE
FNDA:0,_ZNSt14_Function_base13_Base_managerIZN6client12MessageGroup7sendNetEvEUlRKN9sharedLib7MessageEE0_E10_M_destroyERSt9_Any_dataSt17integral_constantIbLb1EE
FN:196,_ZNSt14_Function_base13_Base_managerIZN6client12MessageGroup7sendNetEvEUlRKN9sharedLib7MessageEE0_E10_M_managerERSt9_Any_dataRKS9_St18_Manager_operation
FNDA:0,_ZNSt14_Function_base13_Base_managerIZN6client12MessageGroup7sendNetEvEUlRKN9sharedLib7MessageEE0_E10_M_managerERSt9_Any_dataRKS9_St18_Manager_operation
FN:196,_ZNSt14_Function_base13_Base_managerIZN6client12MessageGroup7sendNetEvEUlRKN9sharedLib7MessageEE_E10_M_managerERSt9_Any_dataRKS9_St18_Manager_operation
FNDA:2,_ZNSt14_Function_base13_Base_managerIZN6client12MessageGroup7sendNetEvEUlRKN9sharedLib7MessageEE_E10_M_managerERSt9_Any_dataRKS9_St18_Manager_operation
FN:222,_ZNSt14_Function_base13_Base_managerIZN6client12MessageGroup7sendNetEvEUlRKN9sharedLib7MessageEE0_E15_M_init_functorERSt9_Any_dataOS7_
FNDA:0,_ZNSt14_Function_base13_Base_managerIZN6client12MessageGroup7sendNetEvEUlRKN9sharedLib7MessageEE0_E15_M_init_functorERSt9_Any_dataOS7_
FN:222,_ZNSt14_Function_base13_Base_managerIZN6client12MessageGroup7sendNetEvEUlRKN9sharedLib7MessageEE_E15_M_init_functorERSt9_Any_dataOS7_
FNDA:2,_ZNSt14_Function_base13_Base_managerIZN6client12MessageGroup7sendNetEvEUlRKN9sharedLib7MessageEE_E15_M_init_functorERSt9_Any_dataOS7_
FN:242,_ZNSt14_Function_base13_Base_managerIZN6client12MessageGroup7sendNetEvEUlRKN9sharedLib7MessageEE0_E21_M_not_empty_functionIS7_EEbRKT_
FNDA:0,_ZNSt14_Function_base13_Base_managerIZN6client12MessageGroup7sendNetEvEUlRKN9sharedLib7MessageEE0_E21_M_not_empty_functionIS7_EEbRKT_
FN:242,_ZNSt14_Function_base13_Base_managerIZN6client12MessageGroup7sendNetEvEUlRKN9sharedLib7MessageEE_E21_M_not_empty_functionIS7_EEbRKT_
FNDA:2,_ZNSt14_Function_base13_Base_managerIZN6client12MessageGroup7sendNetEvEUlRKN9sharedLib7MessageEE_E21_M_not_empty_functionIS7_EEbRKT_
FN:247,_ZNSt14_Function_base13_Base_managerIZN6client12MessageGroup7sendNetEvEUlRKN9sharedLib7MessageEE0_E15_M_init_functorERSt9_Any_dataOS7_St17integral_constantIbLb1EE
FNDA:0,_ZNSt14_Function_base13_Base_managerIZN6client12MessageGroup7sendNetEvEUlRKN9sharedLib7MessageEE0_E15_M_init_functorERSt9_Any_dataOS7_St17integral_constantIbLb1EE
FN:247,_ZNSt14_Function_base13_Base_managerIZN6client12MessageGroup7sendNetEvEUlRKN9sharedLib7MessageEE_E15_M_init_functorERSt9_Any_dataOS7_St17integral_constantIbLb1EE
FNDA:2,_ZNSt14_Function_base13_Base_managerIZN6client12MessageGroup7sendNetEvEUlRKN9sharedLib7MessageEE_E15_M_init_functorERSt9_Any_dataOS7_St17integral_constantIbLb1EE
FN:255,_ZNSt14_Function_baseC2Ev
FNDA:8,_ZNSt14_Function_baseC2Ev
FN:257,_ZNSt14_Function_baseD2Ev
FNDA:8,_ZNSt14_Function_baseD2Ev
FN:263,_ZNKSt14_Function_base8_M_emptyEv
FNDA:7,_ZNKSt14_Function_base8_M_emptyEv
FN:298,_ZNSt17_Function_handlerIFvRKN9sharedLib7MessageEEZN6client12MessageGroup7sendNetEvEUlS3_E_E9_M_invokeERKSt9_Any_dataS3_
FNDA:0,_ZNSt17_Function_handlerIFvRKN9sharedLib7MessageEEZN6client12MessageGroup7sendNetEvEUlS3_E_E9_M_invokeERKSt9_Any_dataS3_
FN:298,_ZNSt17_Function_handlerIFvRKN9sharedLib7MessageEEZN6client12MessageGroup7sendNetEvEUlS3_E0_E9_M_invokeERKSt9_Any_dataS3_
FNDA:0,_ZNSt17_Function_handlerIFvRKN9sharedLib7MessageEEZN6client12MessageGroup7sendNetEvEUlS3_E0_E9_M_invokeERKSt9_Any_dataS3_
FN:396,_ZNSt8functionIFvRKN9__gnu_cxx17__normal_iteratorIPN9sharedLib7MessageESt6vectorIS3_SaIS3_EEEESA_EEC2Ev
FNDA:1,_ZNSt8functionIFvRKN9__gnu_cxx17__normal_iteratorIPN9sharedLib7MessageESt6vectorIS3_SaIS3_EEEESA_EEC2Ev
FN:462,_ZNSt8functionIFvRKN9__gnu_cxx17__normal_iteratorIPN9sharedLib7MessageESt6vectorIS3_SaIS3_EEEESA_EEaSERKSC_
FNDA:1,_ZNSt8functionIFvRKN9__gnu_cxx17__normal_iteratorIPN9sharedLib7MessageESt6vectorIS3_SaIS3_EEEESA_EEaSERKSC_
FN:547,_ZNSt8functionIFvRKN9__gnu_cxx17__normal_iteratorIPN9sharedLib7MessageESt6vectorIS3_SaIS3_EEEESA_EE4swapERSC_
FNDA:1,_ZNSt8functionIFvRKN9__gnu_cxx17__normal_iteratorIPN9sharedLib7MessageESt6vectorIS3_SaIS3_EEEESA_EE4swapERSC_
FN:564,_ZNKSt8functionIFvRKN9__gnu_cxx17__normal_iteratorIPN9sharedLib7MessageESt6vectorIS3_SaIS3_EEEESA_EEcvbEv
FNDA:1,_ZNKSt8functionIFvRKN9__gnu_cxx17__normal_iteratorIPN9sharedLib7MessageESt6vectorIS3_SaIS3_EEEESA_EEcvbEv
FN:653,_ZNSt8functionIFvRKN9__gnu_cxx17__normal_iteratorIPN9sharedLib7MessageESt6vectorIS3_SaIS3_EEEESA_EEC2ERKSC_
FNDA:1,_ZNSt8functionIFvRKN9__gnu_cxx17__normal_iteratorIPN9sharedLib7MessageESt6vectorIS3_SaIS3_EEEESA_EEC2ERKSC_
FN:667,_ZNSt8functionIFvRKN9sharedLib7MessageEEEC2IZN6client12MessageGroup7sendNetEvEUlS3_E0_vvEET_
FNDA:0,_ZNSt8functionIFvRKN9sharedLib7MessageEEEC2IZN6client12MessageGroup7sendNetEvEUlS3_E0_vvEET_
FN:667,_ZNSt8functionIFvRKN9sharedLib7MessageEEEC2IZN6client12MessageGroup7sendNetEvEUlS3_E_vvEET_
FNDA:2,_ZNSt8functionIFvRKN9sharedLib7MessageEEEC2IZN6client12MessageGroup7sendNetEvEUlS3_E_vvEET_
FN:683,_ZNKSt8functionIFvRKN9__gnu_cxx17__normal_iteratorIPN9sharedLib7MessageESt6vectorIS3_SaIS3_EEEESA_EEclESA_SA_
FNDA:3,_ZNKSt8functionIFvRKN9__gnu_cxx17__normal_iteratorIPN9sharedLib7MessageESt6vectorIS3_SaIS3_EEEESA_EEclESA_SA_
DA:87,8
DA:88,4
DA:92,0
DA:93,0
DA:92,2
DA:93,2
DA:92,0
DA:93,0
DA:92,0
DA:93,0
DA:92,0
DA:93,0
DA:97,0
DA:98,0
DA:97,0
DA:98,0
DA:151,0
DA:155,0
DA:156,0
DA:151,0
DA:155,0
DA:156,0
DA:165,0
DA:167,0
DA:168,0
DA:165,0
DA:167,0
DA:168,0
DA:182,0
DA:184,0
DA:185,0
DA:182,2
DA:184,2
DA:185,2
DA:196,0
DA:199,0
DA:202,0
DA:203,0
DA:204,0
DA:206,0
DA:207,0
DA:208,0
DA:210,0
DA:211,0
DA:212,0
DA:214,0
DA:215,0
DA:216,0
DA:218,0
DA:196,2
DA:199,2
DA:202,0
DA:203,0
DA:204,0
DA:206,0
DA:207,0
DA:208,0
DA:210,0
DA:211,0
DA:212,0
DA:214,2
DA:215,2
DA:216,2
DA:218,2
DA:222,0
DA:223,0
DA:222,2
DA:223,2
DA:242,0
DA:243,0
DA:242,2
DA:243,2
DA:247,0
DA:248,0
DA:247,2
DA:248,2
DA:255,8
DA:257,8
DA:258,8
DA:259,8
DA:260,4
DA:261,8
DA:263,7
DA:298,0
DA:300,0
DA:302,0
DA:298,0
DA:300,0
DA:302,0
DA:396,1
DA:397,1
DA:462,1
DA:464,1
DA:465,1
DA:547,1
DA:549,1
DA:550,1
DA:551,1
DA:552,1
DA:564,1
DA:565,1
DA:653,1
DA:655,1
DA:657,1
DA:659,1
DA:660,1
DA:661,1
DA:663,1
DA:667,0
DA:669,0
DA:673,0
DA:675,0
DA:676,0
DA:677,0
DA:679,0
DA:667,2
DA:669,2
DA:673,2
DA:675,2
DA:676,2
DA:677,2
DA:679,2
DA:683,3
DA:686,3
DA:687,0
DA:688,3
end_of_record
SF:/usr/include/c++/9/bits/stl_iterator.h
FN:803,_ZN9__gnu_cxx17__normal_iteratorIPN9sharedLib8PlatformESt6vectorIS2_SaIS2_EEEC2ERKS3_
FNDA:2,_ZN9__gnu_cxx17__normal_iteratorIPN9sharedLib8PlatformESt6vectorIS2_SaIS2_EEEC2ERKS3_
FN:803,_ZN9__gnu_cxx17__normal_iteratorIPKN9sharedLib4SongESt6vectorIS2_SaIS2_EEEC2ERKS4_
FNDA:6,_ZN9__gnu_cxx17__normal_iteratorIPKN9sharedLib4SongESt6vectorIS2_SaIS2_EEEC2ERKS4_
FN:803,_ZN9__gnu_cxx17__normal_iteratorIPN9sharedLib7MessageESt6vectorIS2_SaIS2_EEEC2ERKS3_
FNDA:12,_ZN9__gnu_cxx17__normal_iteratorIPN9sharedLib7MessageESt6vectorIS2_SaIS2_EEEC2ERKS3_
FN:803,_ZN9__gnu_cxx17__normal_iteratorIPKN9sharedLib8PlatformESt6vectorIS2_SaIS2_EEEC2ERKS4_
FNDA:6,_ZN9__gnu_cxx17__normal_iteratorIPKN9sharedLib8PlatformESt6vectorIS2_SaIS2_EEEC2ERKS4_
FN:803,_ZN9__gnu_cxx17__normal_iteratorIPN9sharedLib8PlaylistESt6vectorIS2_SaIS2_EEEC2ERKS3_
FNDA:20,_ZN9__gnu_cxx17__normal_iteratorIPN9sharedLib8PlaylistESt6vectorIS2_SaIS2_EEEC2ERKS3_
FN:803,_ZN9__gnu_cxx17__normal_iteratorIPN9sharedLib4SongESt6vectorIS2_SaIS2_EEEC2ERKS3_
FNDA:20,_ZN9__gnu_cxx17__normal_iteratorIPN9sharedLib4SongESt6vectorIS2_SaIS2_EEEC2ERKS3_
FN:803,_ZN9__gnu_cxx17__normal_iteratorIPKN9sharedLib7MessageESt6vectorIS2_SaIS2_EEEC2ERKS4_
FNDA:0,_ZN9__gnu_cxx17__normal_iteratorIPKN9sharedLib7MessageESt6vectorIS2_SaIS2_EEEC2ERKS4_
FN:803,_ZN9__gnu_cxx17__normal_iteratorIPKN9sharedLib8PlaylistESt6vectorIS2_SaIS2_EEEC2ERKS4_
FNDA:6,_ZN9__gnu_cxx17__normal_iteratorIPKN9sharedLib8PlaylistESt6vectorIS2_SaIS2_EEEC2ERKS4_
FN:816,_ZNK9__gnu_cxx17__normal_iteratorIPN9sharedLib4SongESt6vectorIS2_SaIS2_EEEdeEv
FNDA:5,_ZNK9__gnu_cxx17__normal_iteratorIPN9sharedLib4SongESt6vectorIS2_SaIS2_EEEdeEv
FN:816,_ZNK9__gnu_cxx17__normal_iteratorIPN9sharedLib8PlaylistESt6vectorIS2_SaIS2_EEEdeEv
FNDA:5,_ZNK9__gnu_cxx17__normal_iteratorIPN9sharedLib8PlaylistESt6vectorIS2_SaIS2_EEEdeEv
FN:816,_ZNK9__gnu_cxx17__normal_iteratorIPKN9sharedLib7MessageESt6vectorIS2_SaIS2_EEEdeEv
FNDA:0,_ZNK9__gnu_cxx17__normal_iteratorIPKN9sharedLib7MessageESt6vectorIS2_SaIS2_EEEdeEv
FN:816,_ZNK9__gnu_cxx17__normal_iteratorIPKN9sharedLib8PlaylistESt6vectorIS2_SaIS2_EEEdeEv
FNDA:2,_ZNK9__gnu_cxx17__normal_iteratorIPKN9sharedLib8PlaylistESt6vectorIS2_SaIS2_EEEdeEv
FN:816,_ZNK9__gnu_cxx17__normal_iteratorIPKN9sharedLib4SongESt6vectorIS2_SaIS2_EEEdeEv
FNDA:2,_ZNK9__gnu_cxx17__normal_iteratorIPKN9sharedLib4SongESt6vectorIS2_SaIS2_EEEdeEv
FN:816,_ZNK9__gnu_cxx17__normal_iteratorIPN9sharedLib7MessageESt6vectorIS2_SaIS2_EEEdeEv
FNDA:2,_ZNK9__gnu_cxx17__normal_iteratorIPN9sharedLib7MessageESt6vectorIS2_SaIS2_EEEdeEv
FN:824,_ZN9__gnu_cxx17__normal_iteratorIPN9sharedLib8PlaylistESt6vectorIS2_SaIS2_EEEppEv
FNDA:3,_ZN9__gnu_cxx17__normal_iteratorIPN9sharedLib8PlaylistESt6vectorIS2_SaIS2_EEEppEv
FN:824,_ZN9__gnu_cxx17__normal_iteratorIPN9sharedLib4SongESt6vectorIS2_SaIS2_EEEppEv
FNDA:3,_ZN9__gnu_cxx17__normal_iteratorIPN9sharedLib4SongESt6vectorIS2_SaIS2_EEEppEv
FN:824,_ZN9__gnu_cxx17__normal_iteratorIPN9sharedLib7MessageESt6vectorIS2_SaIS2_EEEppEv
FNDA:2,_ZN9__gnu_cxx17__normal_iteratorIPN9sharedLib7MessageESt6vectorIS2_SaIS2_EEEppEv
FN:824,_ZN9__gnu_cxx17__normal_iteratorIPKN9sharedLib7MessageESt6vectorIS2_SaIS2_EEEppEv
FNDA:0,_ZN9__gnu_cxx17__normal_iteratorIPKN9sharedLib7MessageESt6vectorIS2_SaIS2_EEEppEv
FN:824,_ZN9__gnu_cxx17__normal_iteratorIPKN9sharedLib8PlaylistESt6vectorIS2_SaIS2_EEEppEv
FNDA:2,_ZN9__gnu_cxx17__normal_iteratorIPKN9sharedLib8PlaylistESt6vectorIS2_SaIS2_EEEppEv
FN:824,_ZN9__gnu_cxx17__normal_iteratorIPKN9sharedLib4SongESt6vectorIS2_SaIS2_EEEppEv
FNDA:2,_ZN9__gnu_cxx17__normal_iteratorIPKN9sharedLib4SongESt6vectorIS2_SaIS2_EEEppEv
FN:856,_ZNK9__gnu_cxx17__normal_iteratorIPN9sharedLib8PlatformESt6vectorIS2_SaIS2_EEEplEl
FNDA:0,_ZNK9__gnu_cxx17__normal_iteratorIPN9sharedLib8PlatformESt6vectorIS2_SaIS2_EEEplEl
FN:856,_ZNK9__gnu_cxx17__normal_iteratorIPN9sharedLib4SongESt6vectorIS2_SaIS2_EEEplEl
FNDA:0,_ZNK9__gnu_cxx17__normal_iteratorIPN9sharedLib4SongESt6vectorIS2_SaIS2_EEEplEl
FN:856,_ZNK9__gnu_cxx17__normal_iteratorIPN9sharedLib8PlaylistESt6vectorIS2_SaIS2_EEEplEl
FNDA:0,_ZNK9__gnu_cxx17__normal_iteratorIPN9sharedLib8PlaylistESt6vectorIS2_SaIS2_EEEplEl
FN:856,_ZNK9__gnu_cxx17__normal_iteratorIPN9sharedLib7MessageESt6vectorIS2_SaIS2_EEEplEl
FNDA:0,_ZNK9__gnu_cxx17__normal_iteratorIPN9sharedLib7MessageESt6vectorIS2_SaIS2_EEEplEl
FN:868,_ZNK9__gnu_cxx17__normal_iteratorIPKN9sharedLib8PlatformESt6vectorIS2_SaIS2_EEE4baseEv
FNDA:6,_ZNK9__gnu_cxx17__normal_iteratorIPKN9sharedLib8PlatformESt6vectorIS2_SaIS2_EEE4baseEv
FN:868,_ZNK9__gnu_cxx17__normal_iteratorIPN9sharedLib8PlatformESt6vectorIS2_SaIS2_EEE4baseEv
FNDA:4,_ZNK9__gnu_cxx17__normal_iteratorIPN9sharedLib8PlatformESt6vectorIS2_SaIS2_EEE4baseEv
FN:868,_ZNK9__gnu_cxx17__normal_iteratorIPN9sharedLib4SongESt6vectorIS2_SaIS2_EEE4baseEv
FNDA:46,_ZNK9__gnu_cxx17__normal_iteratorIPN9sharedLib4SongESt6vectorIS2_SaIS2_EEE4baseEv
FN:868,_ZNK9__gnu_cxx17__normal_iteratorIPKN9sharedLib4SongESt6vectorIS2_SaIS2_EEE4baseEv
FNDA:10,_ZNK9__gnu_cxx17__normal_iteratorIPKN9sharedLib4SongESt6vectorIS2_SaIS2_EEE4baseEv
FN:868,_ZNK9__gnu_cxx17__normal_iteratorIPN9sharedLib8PlaylistESt6vectorIS2_SaIS2_EEE4baseEv
FNDA:46,_ZNK9__gnu_cxx17__normal_iteratorIPN9sharedLib8PlaylistESt6vectorIS2_SaIS2_EEE4baseEv
FN:868,_ZNK9__gnu_cxx17__normal_iteratorIPKN9sharedLib8PlaylistESt6vectorIS2_SaIS2_EEE4baseEv
FNDA:10,_ZNK9__gnu_cxx17__normal_iteratorIPKN9sharedLib8PlaylistESt6vectorIS2_SaIS2_EEE4baseEv
FN:868,_ZNK9__gnu_cxx17__normal_iteratorIPKN9sharedLib7MessageESt6vectorIS2_SaIS2_EEE4baseEv
FNDA:0,_ZNK9__gnu_cxx17__normal_iteratorIPKN9sharedLib7MessageESt6vectorIS2_SaIS2_EEE4baseEv
FN:868,_ZNK9__gnu_cxx17__normal_iteratorIPN9sharedLib7MessageESt6vectorIS2_SaIS2_EEE4baseEv
FNDA:12,_ZNK9__gnu_cxx17__normal_iteratorIPN9sharedLib7MessageESt6vectorIS2_SaIS2_EEE4baseEv
FN:904,_ZN9__gnu_cxxneIPN9sharedLib7MessageESt6vectorIS2_SaIS2_EEEEbRKNS_17__normal_iteratorIT_T0_EESC_
FNDA:4,_ZN9__gnu_cxxneIPN9sharedLib7MessageESt6vectorIS2_SaIS2_EEEEbRKNS_17__normal_iteratorIT_T0_EESC_
FN:904,_ZN9__gnu_cxxneIPKN9sharedLib4SongESt6vectorIS2_SaIS2_EEEEbRKNS_17__normal_iteratorIT_T0_EESD_
FNDA:5,_ZN9__gnu_cxxneIPKN9sharedLib4SongESt6vectorIS2_SaIS2_EEEEbRKNS_17__normal_iteratorIT_T0_EESD_
FN:904,_ZN9__gnu_cxxneIPKN9sharedLib8PlaylistESt6vectorIS2_SaIS2_EEEEbRKNS_17__normal_iteratorIT_T0_EESD_
FNDA:5,_ZN9__gnu_cxxneIPKN9sharedLib8PlaylistESt6vectorIS2_SaIS2_EEEEbRKNS_17__normal_iteratorIT_T0_EESD_
FN:904,_ZN9__gnu_cxxneIPKN9sharedLib7MessageESt6vectorIS2_SaIS2_EEEEbRKNS_17__normal_iteratorIT_T0_EESD_
FNDA:0,_ZN9__gnu_cxxneIPKN9sharedLib7MessageESt6vectorIS2_SaIS2_EEEEbRKNS_17__normal_iteratorIT_T0_EESD_
FN:904,_ZN9__gnu_cxxneIPN9sharedLib4SongESt6vectorIS2_SaIS2_EEEEbRKNS_17__normal_iteratorIT_T0_EESC_
FNDA:3,_ZN9__gnu_cxxneIPN9sharedLib4SongESt6vectorIS2_SaIS2_EEEEbRKNS_17__normal_iteratorIT_T0_EESC_
FN:904,_ZN9__gnu_cxxneIPN9sharedLib8PlaylistESt6vectorIS2_SaIS2_EEEEbRKNS_17__normal_iteratorIT_T0_EESC_
FNDA:3,_ZN9__gnu_cxxneIPN9sharedLib8PlaylistESt6vectorIS2_SaIS2_EEEEbRKNS_17__normal_iteratorIT_T0_EESC_
FN:986,_ZN9__gnu_cxxmiIPN9sharedLib7MessageESt6vectorIS2_SaIS2_EEEENS_17__normal_iteratorIT_T0_E15difference_typeERKSA_SD_
FNDA:1,_ZN9__gnu_cxxmiIPN9sharedLib7MessageESt6vectorIS2_SaIS2_EEEENS_17__normal_iteratorIT_T0_E15difference_typeERKSA_SD_
FN:1007,_ZSt12__niter_baseIPN9sharedLib4SongESt6vectorIS1_SaIS1_EEET_N9__gnu_cxx17__normal_iteratorIS6_T0_EE
FNDA:0,_ZSt12__niter_baseIPN9sharedLib4SongESt6vectorIS1_SaIS1_EEET_N9__gnu_cxx17__normal_iteratorIS6_T0_EE
FN:1007,_ZSt12__niter_baseIPN9sharedLib8PlatformESt6vectorIS1_SaIS1_EEET_N9__gnu_cxx17__normal_iteratorIS6_T0_EE
FNDA:0,_ZSt12__niter_baseIPN9sharedLib8PlatformESt6vectorIS1_SaIS1_EEET_N9__gnu_cxx17__normal_iteratorIS6_T0_EE
FN:1007,_ZSt12__niter_baseIPKN9sharedLib7MessageESt6vectorIS1_SaIS1_EEET_N9__gnu_cxx17__normal_iteratorIS7_T0_EE
FNDA:0,_ZSt12__niter_baseIPKN9sharedLib7MessageESt6vectorIS1_SaIS1_EEET_N9__gnu_cxx17__normal_iteratorIS7_T0_EE
FN:1007,_ZSt12__niter_baseIPN9sharedLib7MessageESt6vectorIS1_SaIS1_EEET_N9__gnu_cxx17__normal_iteratorIS6_T0_EE
FNDA:0,_ZSt12__niter_baseIPN9sharedLib7MessageESt6vectorIS1_SaIS1_EEET_N9__gnu_cxx17__normal_iteratorIS6_T0_EE
FN:1007,_ZSt12__niter_baseIPKN9sharedLib8PlaylistESt6vectorIS1_SaIS1_EEET_N9__gnu_cxx17__normal_iteratorIS7_T0_EE
FNDA:0,_ZSt12__niter_baseIPKN9sharedLib8PlaylistESt6vectorIS1_SaIS1_EEET_N9__gnu_cxx17__normal_iteratorIS7_T0_EE
FN:1007,_ZSt12__niter_baseIPN9sharedLib8PlaylistESt6vectorIS1_SaIS1_EEET_N9__gnu_cxx17__normal_iteratorIS6_T0_EE
FNDA:0,_ZSt12__niter_baseIPN9sharedLib8PlaylistESt6vectorIS1_SaIS1_EEET_N9__gnu_cxx17__normal_iteratorIS6_T0_EE
FN:1007,_ZSt12__niter_baseIPKN9sharedLib4SongESt6vectorIS1_SaIS1_EEET_N9__gnu_cxx17__normal_iteratorIS7_T0_EE
FNDA:0,_ZSt12__niter_baseIPKN9sharedLib4SongESt6vectorIS1_SaIS1_EEET_N9__gnu_cxx17__normal_iteratorIS7_T0_EE
FN:1007,_ZSt12__niter_baseIPKN9sharedLib8PlatformESt6vectorIS1_SaIS1_EEET_N9__gnu_cxx17__normal_iteratorIS7_T0_EE
FNDA:6,_ZSt12__niter_baseIPKN9sharedLib8PlatformESt6vectorIS1_SaIS1_EEET_N9__gnu_cxx17__normal_iteratorIS7_T0_EE
FN:1054,_ZNSt13move_iteratorIPN9sharedLib7MessageEEC2ES2_
FNDA:0,_ZNSt13move_iteratorIPN9sharedLib7MessageEEC2ES2_
FN:1063,_ZNKSt13move_iteratorIPN9sharedLib7MessageEE4baseEv
FNDA:0,_ZNKSt13move_iteratorIPN9sharedLib7MessageEE4baseEv
FN:1067,_ZNKSt13move_iteratorIPN9sharedLib7MessageEEdeEv
FNDA:0,_ZNKSt13move_iteratorIPN9sharedLib7MessageEEdeEv
FN:1075,_ZNSt13move_iteratorIPN9sharedLib7MessageEEppEv
FNDA:0,_ZNSt13move_iteratorIPN9sharedLib7MessageEEppEv
FN:1142,_ZSteqIPN9sharedLib7MessageEEbRKSt13move_iteratorIT_ES7_
FNDA:0,_ZSteqIPN9sharedLib7MessageEEbRKSt13move_iteratorIT_ES7_
FN:1154,_ZStneIPN9sharedLib7MessageEEbRKSt13move_iteratorIT_ES7_
FNDA:0,_ZStneIPN9sharedLib7MessageEEbRKSt13move_iteratorIT_ES7_
FN:1239,_ZSt32__make_move_if_noexcept_iteratorIN9sharedLib7MessageESt13move_iteratorIPS1_EET0_PT_
FNDA:0,_ZSt32__make_move_if_noexcept_iteratorIN9sharedLib7MessageESt13move_iteratorIPS1_EET0_PT_
DA:803,2
DA:804,2
DA:803,6
DA:804,6
DA:803,20
DA:804,20
DA:803,6
DA:804,6
DA:803,20
DA:804,20
DA:803,6
DA:804,6
DA:803,0
DA:804,0
DA:803,12
DA:804,12
DA:816,2
DA:817,2
DA:816,2
DA:817,2
DA:816,0
DA:817,0
DA:816,5
DA:817,5
DA:816,5
DA:817,5
DA:816,2
DA:817,2
DA:824,2
DA:826,2
DA:827,2
DA:824,2
DA:826,2
DA:827,2
DA:824,0
DA:826,0
DA:827,0
DA:824,3
DA:826,3
DA:827,3
DA:824,3
DA:826,3
DA:827,3
DA:824,2
DA:826,2
DA:827,2
DA:856,0
DA:857,0
DA:856,0
DA:857,0
DA:856,0
DA:857,0
DA:856,0
DA:857,0
DA:868,4
DA:869,4
DA:868,6
DA:869,6
DA:868,46
DA:869,46
DA:868,10
DA:869,10
DA:868,46
DA:869,46
DA:868,10
DA:869,10
DA:868,0
DA:869,0
DA:868,12
DA:869,12
DA:904,5
DA:907,5
DA:904,5
DA:907,5
DA:904,0
DA:907,0
DA:904,3
DA:907,3
DA:904,3
DA:907,3
DA:904,4
DA:907,4
DA:986,1
DA:989,1
DA:1007,0
DA:1009,0
DA:1007,6
DA:1009,6
DA:1007,0
DA:1009,0
DA:1007,0
DA:1009,0
DA:1007,0
DA:1009,0
DA:1007,0
DA:1009,0
DA:1007,0
DA:1009,0
DA:1007,0
DA:1009,0
DA:1054,0
DA:1055,0
DA:1063,0
DA:1064,0
DA:1067,0
DA:1068,0
DA:1075,0
DA:1077,0
DA:1078,0
DA:1142,0
DA:1144,0
DA:1154,0
DA:1156,0
DA:1239,0
DA:1240,0
end_of_record
SF:/usr/include/c++/9/bits/cpp_type_traits.h
FN:428,_ZSt12__miter_baseIPN9sharedLib8PlatformEET_S3_
FNDA:0,_ZSt12__miter_baseIPN9sharedLib8PlatformEET_S3_
FN:428,_ZSt12__miter_baseIN9__gnu_cxx17__normal_iteratorIPKN9sharedLib8PlatformESt6vectorIS3_SaIS3_EEEEET_SA_
FNDA:6,_ZSt12__miter_baseIN9__gnu_cxx17__normal_iteratorIPKN9sharedLib8PlatformESt6vectorIS3_SaIS3_EEEEET_SA_
FN:428,_ZSt12__miter_baseIPN9sharedLib4SongEET_S3_
FNDA:0,_ZSt12__miter_baseIPN9sharedLib4SongEET_S3_
FN:428,_ZSt12__miter_baseIN9__gnu_cxx17__normal_iteratorIPKN9sharedLib4SongESt6vectorIS3_SaIS3_EEEEET_SA_
FNDA:0,_ZSt12__miter_baseIN9__gnu_cxx17__normal_iteratorIPKN9sharedLib4SongESt6vectorIS3_SaIS3_EEEEET_SA_
FN:428,_ZSt12__miter_baseIPN9sharedLib8PlaylistEET_S3_
FNDA:0,_ZSt12__miter_baseIPN9sharedLib8PlaylistEET_S3_
FN:428,_ZSt12__miter_baseIN9__gnu_cxx17__normal_iteratorIPKN9sharedLib8PlaylistESt6vectorIS3_SaIS3_EEEEET_SA_
FNDA:0,_ZSt12__miter_baseIN9__gnu_cxx17__normal_iteratorIPKN9sharedLib8PlaylistESt6vectorIS3_SaIS3_EEEEET_SA_
FN:428,_ZSt12__miter_baseIPN9sharedLib7MessageEET_S3_
FNDA:0,_ZSt12__miter_baseIPN9sharedLib7MessageEET_S3_
FN:428,_ZSt12__miter_baseIN9__gnu_cxx17__normal_iteratorIPKN9sharedLib7MessageESt6vectorIS3_SaIS3_EEEEET_SA_
FNDA:0,_ZSt12__miter_baseIN9__gnu_cxx17__normal_iteratorIPKN9sharedLib7MessageESt6vectorIS3_SaIS3_EEEEET_SA_
DA:428,0
DA:429,0
DA:428,6
DA:429,6
DA:428,0
DA:429,0
DA:428,0
DA:429,0
DA:428,0
DA:429,0
DA:428,0
DA:429,0
DA:428,0
DA:429,0
DA:428,0
DA:429,0
end_of_record
SF:/usr/include/c++/9/bits/basic_string.h
FN:247,_ZNSt7__cxx1112basic_stringIcSt11char_traitsIcESaIcEE16_M_construct_auxIPcEEvT_S7_St12__false_type
FNDA:0,_ZNSt7__cxx1112basic_stringIcSt11char_traitsIcESaIcEE16_M_construct_auxIPcEEvT_S7_St12__false_type
FN:247,_ZNSt7__cxx1112basic_stringIcSt11char_traitsIcESaIcEE16_M_construct_auxIPKcEEvT_S8_St12__false_type
FNDA:0,_ZNSt7__cxx1112basic_stringIcSt11char_traitsIcESaIcEE16_M_construct_auxIPKcEEvT_S8_St12__false_type
FN:267,_ZNSt7__cxx1112basic_stringIcSt11char_traitsIcESaIcEE12_M_constructIPcEEvT_S7_
FNDA:0,_ZNSt7__cxx1112basic_stringIcSt11char_traitsIcESaIcEE12_M_constructIPcEEvT_S7_
FN:267,_ZNSt7__cxx1112basic_stringIcSt11char_traitsIcESaIcEE12_M_constructIPKcEEvT_S8_
FNDA:0,_ZNSt7__cxx1112basic_stringIcSt11char_traitsIcESaIcEE12_M_constructIPKcEEvT_S8_
DA:247,0
DA:251,0
DA:252,0
DA:247,0
DA:251,0
DA:252,0
DA:267,0
DA:270,0
DA:271,0
DA:267,0
DA:270,0
DA:271,0
end_of_record
